(lp1
(I2383
I1711
I3423
tp2
a(I2383
I1712
I3423
tp3
a(I2382
I1713
I3423
tp4
a(I2381
I1714
I3423
tp5
a(I2380
I1715
I3423
tp6
a(I2379
I1716
I3423
tp7
a(I2378
I1717
I3423
tp8
a(I2377
I1718
I3423
tp9
a(I2376
I1719
I3423
tp10
a(I2376
I1720
I3423
tp11
a(I2375
I1721
I3423
tp12
a(I2374
I1722
I3423
tp13
a(I2373
I1723
I3423
tp14
a(I2372
I1724
I3423
tp15
a(I2371
I1725
I3423
tp16
a(I2370
I1726
I3423
tp17
a(I2370
I1727
I3423
tp18
a(I2369
I1728
I3423
tp19
a(I2368
I1729
I3423
tp20
a(I2367
I1730
I3423
tp21
a(I2366
I1731
I3423
tp22
a(I2365
I1732
I3423
tp23
a(I2364
I1733
I3423
tp24
a(I2363
I1734
I3423
tp25
a(I2362
I1735
I3423
tp26
a(I2361
I1736
I3423
tp27
a(I2360
I1737
I3423
tp28
a(I2359
I1738
I3423
tp29
a(I2358
I1739
I3423
tp30
a(I2357
I1740
I3423
tp31
a(I2356
I1741
I3423
tp32
a(I2355
I1742
I3423
tp33
a(I2354
I1743
I3423
tp34
a(I2353
I1744
I3423
tp35
a(I2352
I1745
I3423
tp36
a(I2351
I1746
I3423
tp37
a(I2350
I1747
I3423
tp38
a(I2349
I1748
I3423
tp39
a(I2348
I1749
I3423
tp40
a(I2347
I1750
I3423
tp41
a(I2346
I1751
I3423
tp42
a(I2345
I1752
I3423
tp43
a(I2344
I1753
I3423
tp44
a(I2343
I1754
I3423
tp45
a(I2342
I1755
I3423
tp46
a(I2341
I1756
I3423
tp47
a(I2340
I1757
I3423
tp48
a(I2339
I1758
I3423
tp49
a(I2338
I1759
I3423
tp50
a(I2337
I1760
I3423
tp51
a(I2336
I1761
I3423
tp52
a(I2335
I1762
I3423
tp53
a(I2334
I1763
I3423
tp54
a(I2333
I1764
I3423
tp55
a(I2332
I1765
I3423
tp56
a(I2331
I1766
I3423
tp57
a(I2330
I1767
I3423
tp58
a(I2329
I1768
I3423
tp59
a(I2328
I1769
I3423
tp60
a(I2327
I1770
I3423
tp61
a(I2326
I1771
I3423
tp62
a(I2325
I1772
I3423
tp63
a(I2324
I1773
I3423
tp64
a(I2323
I1774
I3423
tp65
a(I2322
I1775
I3423
tp66
a(I2321
I1776
I3423
tp67
a(I2320
I1777
I3423
tp68
a(I2319
I1778
I3423
tp69
a(I2318
I1779
I3423
tp70
a(I2317
I1780
I3423
tp71
a(I2316
I1781
I3423
tp72
a(I2315
I1782
I3423
tp73
a(I2314
I1783
I3423
tp74
a(I2313
I1784
I3423
tp75
a(I2312
I1785
I3423
tp76
a(I2311
I1786
I3423
tp77
a(I2310
I1787
I3423
tp78
a(I2309
I1788
I3423
tp79
a(I2308
I1789
I3423
tp80
a(I2307
I1790
I3423
tp81
a(I2306
I1791
I3423
tp82
a(I2305
I1792
I3423
tp83
a(I2304
I1793
I3423
tp84
a(I2303
I1794
I3423
tp85
a(I2302
I1795
I3423
tp86
a(I2301
I1796
I3423
tp87
a(I2300
I1797
I3423
tp88
a(I2299
I1798
I3423
tp89
a(I2298
I1799
I3423
tp90
a(I2297
I1800
I3423
tp91
a(I2296
I1801
I3423
tp92
a(I2295
I1802
I3423
tp93
a(I2294
I1803
I3423
tp94
a(I2293
I1804
I3423
tp95
a(I2292
I1805
I3423
tp96
a(I2291
I1806
I3423
tp97
a(I2290
I1807
I3423
tp98
a(I2289
I1808
I3423
tp99
a(I2288
I1809
I3423
tp100
a(I2287
I1810
I3423
tp101
a(I2286
I1811
I3423
tp102
a(I2285
I1812
I3423
tp103
a(I2284
I1813
I3423
tp104
a(I2283
I1814
I3423
tp105
a(I2282
I1815
I3423
tp106
a(I2281
I1816
I3423
tp107
a(I2280
I1817
I3423
tp108
a(I2279
I1818
I3423
tp109
a(I2278
I1819
I3423
tp110
a(I2277
I1820
I3423
tp111
a(I2276
I1821
I3423
tp112
a(I2275
I1822
I3423
tp113
a(I2274
I1823
I3423
tp114
a(I2273
I1824
I3423
tp115
a(I2272
I1825
I3423
tp116
a(I2271
I1826
I3423
tp117
a(I2270
I1827
I3423
tp118
a(I2269
I1828
I3423
tp119
a(I2268
I1829
I3423
tp120
a(I2267
I1830
I3423
tp121
a(I2266
I1831
I3423
tp122
a(I2265
I1832
I3423
tp123
a(I2264
I1833
I3423
tp124
a(I2263
I1834
I3423
tp125
a(I2262
I1835
I3423
tp126
a(I2261
I1836
I3423
tp127
a(I2260
I1837
I3423
tp128
a(I2259
I1838
I3423
tp129
a(I2258
I1839
I3423
tp130
a(I2257
I1840
I3423
tp131
a(I2256
I1841
I3423
tp132
a(I2255
I1842
I3423
tp133
a(I2254
I1843
I3423
tp134
a(I2253
I1844
I3423
tp135
a(I2252
I1845
I3423
tp136
a(I2251
I1846
I3423
tp137
a(I2250
I1847
I3423
tp138
a(I2249
I1848
I3423
tp139
a(I2248
I1849
I3423
tp140
a(I2247
I1850
I3423
tp141
a(I2246
I1851
I3423
tp142
a(I2245
I1852
I3423
tp143
a(I2244
I1853
I3423
tp144
a(I2243
I1854
I3423
tp145
a(I2242
I1855
I3423
tp146
a(I2241
I1856
I3423
tp147
a(I2240
I1857
I3423
tp148
a(I2239
I1858
I3423
tp149
a(I2238
I1859
I3423
tp150
a(I2237
I1860
I3423
tp151
a(I2236
I1861
I3423
tp152
a(I2235
I1862
I3423
tp153
a(I2234
I1863
I3423
tp154
a(I2233
I1864
I3423
tp155
a(I2232
I1865
I3423
tp156
a(I2231
I1866
I3423
tp157
a(I2230
I1867
I3423
tp158
a(I2229
I1868
I3423
tp159
a(I2228
I1869
I3423
tp160
a(I2227
I1870
I3423
tp161
a(I2226
I1871
I3423
tp162
a(I2225
I1872
I3423
tp163
a(I2224
I1873
I3423
tp164
a(I2223
I1874
I3423
tp165
a(I2222
I1875
I3423
tp166
a(I2221
I1876
I3423
tp167
a(I2220
I1877
I3423
tp168
a(I2219
I1878
I3423
tp169
a(I2218
I1879
I3423
tp170
a(I2217
I1880
I3423
tp171
a(I2216
I1881
I3423
tp172
a(I2215
I1882
I3423
tp173
a(I2214
I1883
I3423
tp174
a(I2213
I1884
I3423
tp175
a(I2212
I1885
I3423
tp176
a(I2211
I1886
I3423
tp177
a(I2210
I1887
I3423
tp178
a(I2209
I1888
I3423
tp179
a(I2208
I1889
I3423
tp180
a(I2207
I1890
I3423
tp181
a(I2206
I1891
I3423
tp182
a(I2205
I1892
I3423
tp183
a(I2204
I1893
I3423
tp184
a(I2203
I1894
I3423
tp185
a(I2202
I1895
I3423
tp186
a(I2201
I1896
I3423
tp187
a(I2200
I1897
I3423
tp188
a(I2199
I1898
I3423
tp189
a(I2198
I1899
I3423
tp190
a(I2197
I1900
I3423
tp191
a(I2196
I1901
I3423
tp192
a(I2195
I1902
I3423
tp193
a(I2194
I1903
I3423
tp194
a(I2193
I1904
I3423
tp195
a(I2192
I1905
I3423
tp196
a(I2191
I1906
I3423
tp197
a(I2190
I1907
I3423
tp198
a(I2189
I1908
I3423
tp199
a(I2188
I1909
I3423
tp200
a(I2187
I1910
I3423
tp201
a(I2186
I1911
I3423
tp202
a(I2185
I1912
I3423
tp203
a(I2184
I1913
I3423
tp204
a(I2183
I1914
I3423
tp205
a(I2182
I1915
I3423
tp206
a(I2181
I1916
I3423
tp207
a(I2180
I1917
I3423
tp208
a(I2179
I1918
I3423
tp209
a(I2178
I1919
I3423
tp210
a(I2177
I1920
I3423
tp211
a(I2176
I1921
I3423
tp212
a(I2175
I1922
I3423
tp213
a(I2174
I1923
I3423
tp214
a(I2173
I1924
I3423
tp215
a(I2172
I1925
I3423
tp216
a(I2171
I1926
I3423
tp217
a(I2170
I1927
I3423
tp218
a(I2169
I1928
I3423
tp219
a(I2168
I1929
I3423
tp220
a(I2167
I1930
I3423
tp221
a(I2166
I1931
I3423
tp222
a(I2165
I1932
I3423
tp223
a(I2164
I1933
I3423
tp224
a(I2163
I1934
I3423
tp225
a(I2162
I1935
I3423
tp226
a(I2161
I1936
I3423
tp227
a(I2160
I1937
I3423
tp228
a(I2159
I1938
I3423
tp229
a(I2158
I1939
I3423
tp230
a(I2157
I1940
I3423
tp231
a(I2156
I1941
I3423
tp232
a(I2155
I1942
I3423
tp233
a(I2154
I1943
I3423
tp234
a(I2153
I1944
I3423
tp235
a(I2152
I1945
I3423
tp236
a(I2151
I1946
I3423
tp237
a(I2150
I1947
I3423
tp238
a(I2149
I1948
I3423
tp239
a(I2148
I1949
I3423
tp240
a(I2147
I1950
I3423
tp241
a(I2146
I1951
I3423
tp242
a(I2145
I1952
I3423
tp243
a(I2144
I1953
I3423
tp244
a(I2143
I1954
I3423
tp245
a(I2142
I1955
I3423
tp246
a(I2141
I1956
I3423
tp247
a(I2140
I1957
I3423
tp248
a(I2139
I1958
I3423
tp249
a(I2138
I1959
I3423
tp250
a(I2137
I1960
I3423
tp251
a(I2136
I1961
I3423
tp252
a(I2135
I1962
I3423
tp253
a(I2134
I1963
I3423
tp254
a(I2133
I1964
I3423
tp255
a(I2132
I1965
I3423
tp256
a(I2131
I1966
I3423
tp257
a(I2130
I1967
I3423
tp258
a(I2129
I1968
I3423
tp259
a(I2128
I1969
I3423
tp260
a(I2127
I1970
I3423
tp261
a(I2126
I1971
I3423
tp262
a(I2125
I1972
I3423
tp263
a(I2124
I1973
I3423
tp264
a(I2123
I1974
I3423
tp265
a(I2122
I1975
I3423
tp266
a(I2121
I1976
I3423
tp267
a(I2120
I1977
I3423
tp268
a(I2119
I1978
I3423
tp269
a(I2118
I1979
I3423
tp270
a(I2117
I1980
I3423
tp271
a(I2116
I1981
I3423
tp272
a(I2115
I1982
I3423
tp273
a(I2114
I1983
I3423
tp274
a(I2113
I1984
I3423
tp275
a(I2112
I1985
I3423
tp276
a(I2111
I1986
I3423
tp277
a(I2110
I1987
I3423
tp278
a(I2109
I1988
I3423
tp279
a(I2108
I1989
I3423
tp280
a(I2107
I1990
I3423
tp281
a(I2106
I1991
I3423
tp282
a(I2105
I1992
I3423
tp283
a(I2104
I1993
I3423
tp284
a(I2103
I1994
I3423
tp285
a(I2102
I1995
I3423
tp286
a(I2101
I1996
I3423
tp287
a(I2100
I1997
I3423
tp288
a(I2099
I1998
I3423
tp289
a(I2098
I1999
I3423
tp290
a(I2097
I2000
I3423
tp291
a(I2096
I2001
I3423
tp292
a(I2095
I2002
I3423
tp293
a(I2094
I2003
I3423
tp294
a(I2093
I2004
I3423
tp295
a(I2092
I2005
I3423
tp296
a(I2091
I2006
I3423
tp297
a(I2090
I2007
I3423
tp298
a(I2089
I2008
I3423
tp299
a(I2088
I2009
I3423
tp300
a(I2087
I2010
I3423
tp301
a(I2086
I2011
I3423
tp302
a(I2085
I2012
I3423
tp303
a(I2084
I2013
I3423
tp304
a(I2083
I2014
I3423
tp305
a(I2082
I2015
I3423
tp306
a(I2081
I2016
I3423
tp307
a(I2080
I2017
I3423
tp308
a(I2079
I2018
I3423
tp309
a(I2078
I2019
I3423
tp310
a(I2077
I2020
I3423
tp311
a(I2076
I2021
I3423
tp312
a(I2075
I2022
I3423
tp313
a(I2074
I2023
I3423
tp314
a(I2073
I2024
I3423
tp315
a(I2072
I2025
I3423
tp316
a(I2071
I2026
I3423
tp317
a(I2070
I2027
I3423
tp318
a(I2069
I2028
I3423
tp319
a(I2068
I2029
I3423
tp320
a(I2067
I2030
I3423
tp321
a(I2066
I2031
I3423
tp322
a(I2065
I2032
I3423
tp323
a(I2064
I2033
I3423
tp324
a(I2063
I2034
I3423
tp325
a(I2062
I2035
I3423
tp326
a(I2061
I2036
I3423
tp327
a(I2060
I2037
I3423
tp328
a(I2059
I2038
I3423
tp329
a(I2058
I2039
I3423
tp330
a(I2057
I2040
I3423
tp331
a(I2056
I2041
I3423
tp332
a(I2055
I2042
I3423
tp333
a(I2054
I2043
I3423
tp334
a(I2053
I2044
I3423
tp335
a(I2052
I2045
I3423
tp336
a(I2051
I2046
I3423
tp337
a(I2050
I2047
I3423
tp338
a(I2049
I2048
I3423
tp339
a(I2048
I2049
I3423
tp340
a(I2047
I2050
I3423
tp341
a(I2046
I2051
I3423
tp342
a(I2045
I2052
I3423
tp343
a(I2044
I2053
I3423
tp344
a(I2043
I2054
I3423
tp345
a(I2042
I2055
I3423
tp346
a(I2041
I2056
I3423
tp347
a(I2040
I2057
I3423
tp348
a(I2039
I2058
I3423
tp349
a(I2038
I2059
I3423
tp350
a(I2037
I2060
I3423
tp351
a(I2036
I2061
I3423
tp352
a(I2035
I2062
I3423
tp353
a(I2034
I2063
I3423
tp354
a(I2033
I2064
I3423
tp355
a(I2032
I2065
I3423
tp356
a(I2031
I2066
I3423
tp357
a(I2030
I2067
I3423
tp358
a(I2029
I2068
I3423
tp359
a(I2028
I2069
I3423
tp360
a(I2027
I2070
I3423
tp361
a(I2026
I2071
I3423
tp362
a(I2025
I2072
I3423
tp363
a(I2024
I2073
I3423
tp364
a(I2023
I2074
I3423
tp365
a(I2022
I2075
I3423
tp366
a(I2021
I2076
I3423
tp367
a(I2020
I2077
I3423
tp368
a(I2019
I2078
I3423
tp369
a(I2018
I2079
I3423
tp370
a(I2017
I2080
I3423
tp371
a(I2016
I2081
I3423
tp372
a(I2015
I2082
I3423
tp373
a(I2014
I2083
I3423
tp374
a(I2013
I2084
I3423
tp375
a(I2012
I2085
I3423
tp376
a(I2011
I2086
I3423
tp377
a(I2010
I2087
I3423
tp378
a(I2009
I2088
I3423
tp379
a(I2008
I2089
I3423
tp380
a(I2007
I2090
I3423
tp381
a(I2006
I2091
I3423
tp382
a(I2005
I2092
I3423
tp383
a(I2004
I2093
I3423
tp384
a(I2003
I2094
I3423
tp385
a(I2002
I2095
I3423
tp386
a(I2001
I2096
I3423
tp387
a(I2000
I2097
I3423
tp388
a(I1999
I2098
I3423
tp389
a(I1998
I2099
I3423
tp390
a(I1997
I2100
I3423
tp391
a(I1996
I2101
I3423
tp392
a(I1995
I2102
I3423
tp393
a(I1994
I2103
I3423
tp394
a(I1993
I2104
I3423
tp395
a(I1992
I2105
I3423
tp396
a(I1991
I2106
I3423
tp397
a(I1990
I2107
I3423
tp398
a(I1989
I2108
I3423
tp399
a(I1988
I2109
I3423
tp400
a(I1987
I2110
I3423
tp401
a(I1986
I2111
I3423
tp402
a(I1985
I2112
I3423
tp403
a(I1984
I2113
I3423
tp404
a(I1983
I2114
I3423
tp405
a(I1982
I2115
I3423
tp406
a(I1981
I2116
I3423
tp407
a(I1980
I2117
I3423
tp408
a(I1979
I2118
I3423
tp409
a(I1978
I2119
I3423
tp410
a(I1977
I2120
I3423
tp411
a(I1976
I2121
I3423
tp412
a(I1975
I2122
I3423
tp413
a(I1974
I2123
I3423
tp414
a(I1973
I2124
I3423
tp415
a(I1972
I2125
I3423
tp416
a(I1971
I2126
I3423
tp417
a(I1970
I2127
I3423
tp418
a(I1969
I2128
I3423
tp419
a(I1968
I2129
I3423
tp420
a(I1967
I2130
I3423
tp421
a(I1966
I2131
I3423
tp422
a(I1965
I2132
I3423
tp423
a(I1964
I2133
I3423
tp424
a(I1963
I2134
I3423
tp425
a(I1962
I2135
I3423
tp426
a(I1961
I2136
I3423
tp427
a(I1960
I2137
I3423
tp428
a(I1959
I2138
I3423
tp429
a(I1958
I2139
I3423
tp430
a(I1957
I2140
I3423
tp431
a(I1956
I2141
I3423
tp432
a(I1955
I2142
I3423
tp433
a(I1954
I2143
I3423
tp434
a(I1953
I2144
I3423
tp435
a(I1952
I2145
I3423
tp436
a(I1951
I2146
I3423
tp437
a(I1950
I2147
I3423
tp438
a(I1949
I2148
I3423
tp439
a(I1948
I2149
I3423
tp440
a(I1947
I2150
I3423
tp441
a(I1946
I2151
I3423
tp442
a(I1945
I2152
I3423
tp443
a(I1944
I2153
I3423
tp444
a(I1943
I2154
I3423
tp445
a(I1942
I2155
I3423
tp446
a(I1941
I2156
I3423
tp447
a(I1940
I2157
I3423
tp448
a(I1939
I2158
I3423
tp449
a(I1938
I2159
I3423
tp450
a(I1937
I2160
I3423
tp451
a(I1936
I2161
I3423
tp452
a(I1935
I2162
I3423
tp453
a(I1934
I2163
I3423
tp454
a(I1933
I2164
I3423
tp455
a(I1932
I2165
I3423
tp456
a(I1931
I2166
I3423
tp457
a(I1930
I2167
I3423
tp458
a(I1929
I2168
I3423
tp459
a(I1928
I2169
I3423
tp460
a(I1927
I2170
I3423
tp461
a(I1926
I2171
I3423
tp462
a(I1925
I2172
I3423
tp463
a(I1924
I2173
I3423
tp464
a(I1923
I2174
I3423
tp465
a(I1922
I2175
I3423
tp466
a(I1921
I2176
I3423
tp467
a(I1920
I2177
I3423
tp468
a(I1919
I2178
I3423
tp469
a(I1918
I2179
I3423
tp470
a(I1917
I2180
I3423
tp471
a(I1916
I2181
I3423
tp472
a(I1915
I2182
I3423
tp473
a(I1914
I2183
I3423
tp474
a(I1913
I2184
I3423
tp475
a(I1912
I2185
I3423
tp476
a(I1911
I2186
I3423
tp477
a(I1910
I2187
I3423
tp478
a(I1909
I2188
I3423
tp479
a(I1908
I2189
I3423
tp480
a(I1907
I2190
I3423
tp481
a(I1906
I2191
I3423
tp482
a(I1905
I2192
I3423
tp483
a(I1904
I2193
I3423
tp484
a(I1903
I2194
I3423
tp485
a(I1902
I2195
I3423
tp486
a(I1901
I2196
I3423
tp487
a(I1900
I2197
I3423
tp488
a(I1899
I2198
I3423
tp489
a(I1898
I2199
I3423
tp490
a(I1897
I2200
I3423
tp491
a(I1896
I2201
I3423
tp492
a(I1895
I2202
I3423
tp493
a(I1894
I2203
I3423
tp494
a(I1893
I2204
I3423
tp495
a(I1892
I2205
I3423
tp496
a(I1891
I2206
I3423
tp497
a(I1890
I2207
I3423
tp498
a(I1889
I2208
I3423
tp499
a(I1888
I2209
I3423
tp500
a(I1887
I2210
I3423
tp501
a(I1886
I2211
I3423
tp502
a(I1885
I2212
I3423
tp503
a(I1884
I2213
I3423
tp504
a(I1883
I2214
I3423
tp505
a(I1882
I2215
I3423
tp506
a(I1881
I2216
I3423
tp507
a(I1880
I2217
I3423
tp508
a(I1879
I2218
I3423
tp509
a(I1878
I2219
I3423
tp510
a(I1877
I2220
I3423
tp511
a(I1876
I2221
I3423
tp512
a(I1875
I2222
I3423
tp513
a(I1874
I2223
I3423
tp514
a(I1873
I2224
I3423
tp515
a(I1872
I2225
I3423
tp516
a(I1871
I2226
I3423
tp517
a(I1870
I2227
I3423
tp518
a(I1869
I2228
I3423
tp519
a(I1868
I2229
I3423
tp520
a(I1867
I2230
I3423
tp521
a(I1866
I2231
I3423
tp522
a(I1865
I2232
I3423
tp523
a(I1864
I2233
I3423
tp524
a(I1863
I2234
I3423
tp525
a(I1862
I2235
I3423
tp526
a(I1861
I2236
I3423
tp527
a(I1860
I2237
I3423
tp528
a(I1859
I2238
I3423
tp529
a(I1858
I2239
I3423
tp530
a(I1857
I2240
I3423
tp531
a(I1856
I2241
I3423
tp532
a(I1855
I2242
I3423
tp533
a(I1854
I2243
I3423
tp534
a(I1853
I2244
I3423
tp535
a(I1852
I2245
I3423
tp536
a(I1851
I2246
I3423
tp537
a(I1850
I2247
I3423
tp538
a(I1849
I2248
I3423
tp539
a(I1848
I2249
I3423
tp540
a(I1847
I2250
I3423
tp541
a(I1846
I2251
I3423
tp542
a(I1845
I2252
I3423
tp543
a(I1844
I2253
I3423
tp544
a(I1843
I2254
I3423
tp545
a(I1842
I2255
I3423
tp546
a(I1841
I2256
I3423
tp547
a(I1840
I2257
I3423
tp548
a(I1839
I2258
I3423
tp549
a(I1838
I2259
I3423
tp550
a(I1837
I2260
I3423
tp551
a(I1836
I2261
I3423
tp552
a(I1835
I2262
I3423
tp553
a(I1834
I2263
I3423
tp554
a(I1833
I2264
I3423
tp555
a(I1832
I2265
I3423
tp556
a(I1831
I2266
I3423
tp557
a(I1830
I2267
I3423
tp558
a(I1829
I2268
I3423
tp559
a(I1828
I2269
I3423
tp560
a(I1827
I2270
I3423
tp561
a(I1826
I2271
I3423
tp562
a(I1825
I2272
I3423
tp563
a(I1824
I2273
I3423
tp564
a(I1823
I2274
I3423
tp565
a(I1822
I2275
I3423
tp566
a(I1821
I2276
I3423
tp567
a(I1820
I2277
I3423
tp568
a(I1819
I2278
I3423
tp569
a(I1818
I2279
I3423
tp570
a(I1817
I2280
I3423
tp571
a(I1816
I2281
I3423
tp572
a(I1815
I2282
I3423
tp573
a(I1814
I2283
I3423
tp574
a(I1813
I2284
I3423
tp575
a(I1812
I2285
I3423
tp576
a(I1811
I2286
I3423
tp577
a(I1810
I2287
I3423
tp578
a(I1809
I2288
I3423
tp579
a(I1808
I2289
I3423
tp580
a(I1807
I2290
I3423
tp581
a(I1806
I2291
I3423
tp582
a(I1805
I2292
I3423
tp583
a(I1804
I2293
I3423
tp584
a(I1803
I2294
I3423
tp585
a(I1802
I2295
I3423
tp586
a(I1801
I2296
I3423
tp587
a(I1800
I2297
I3423
tp588
a(I1799
I2298
I3423
tp589
a(I1798
I2299
I3423
tp590
a(I1797
I2300
I3423
tp591
a(I1796
I2301
I3423
tp592
a(I1795
I2302
I3423
tp593
a(I1794
I2303
I3423
tp594
a(I1793
I2304
I3423
tp595
a(I1792
I2305
I3423
tp596
a(I1791
I2306
I3423
tp597
a(I1790
I2307
I3423
tp598
a(I1789
I2308
I3423
tp599
a(I1788
I2309
I3423
tp600
a(I1787
I2310
I3423
tp601
a(I1786
I2311
I3423
tp602
a(I1785
I2312
I3423
tp603
a(I1784
I2313
I3423
tp604
a(I1783
I2314
I3423
tp605
a(I1782
I2315
I3423
tp606
a(I1781
I2316
I3423
tp607
a(I1780
I2317
I3423
tp608
a(I1779
I2318
I3423
tp609
a(I1778
I2319
I3423
tp610
a(I1777
I2320
I3423
tp611
a(I1776
I2321
I3423
tp612
a(I1775
I2322
I3423
tp613
a(I1774
I2323
I3423
tp614
a(I1773
I2324
I3423
tp615
a(I1772
I2325
I3423
tp616
a(I1771
I2326
I3423
tp617
a(I1770
I2327
I3423
tp618
a(I1769
I2328
I3423
tp619
a(I1768
I2329
I3423
tp620
a(I1767
I2330
I3423
tp621
a(I1766
I2331
I3423
tp622
a(I1765
I2332
I3423
tp623
a(I1764
I2333
I3423
tp624
a(I1763
I2334
I3423
tp625
a(I1762
I2335
I3423
tp626
a(I1761
I2336
I3423
tp627
a(I1760
I2337
I3423
tp628
a(I1759
I2338
I3423
tp629
a(I1758
I2339
I3423
tp630
a(I1757
I2340
I3423
tp631
a(I1756
I2341
I3423
tp632
a(I1755
I2342
I3423
tp633
a(I1754
I2343
I3423
tp634
a(I1753
I2344
I3423
tp635
a(I1752
I2345
I3423
tp636
a(I1751
I2346
I3423
tp637
a(I1750
I2347
I3423
tp638
a(I1749
I2348
I3423
tp639
a(I1748
I2349
I3423
tp640
a(I1747
I2350
I3423
tp641
a(I1746
I2351
I3423
tp642
a(I1745
I2352
I3423
tp643
a(I1744
I2353
I3423
tp644
a(I1743
I2354
I3423
tp645
a(I1742
I2355
I3423
tp646
a(I1741
I2356
I3423
tp647
a(I1740
I2357
I3423
tp648
a(I1739
I2358
I3423
tp649
a(I1738
I2359
I3423
tp650
a(I1737
I2360
I3423
tp651
a(I1736
I2361
I3423
tp652
a(I1735
I2362
I3423
tp653
a(I1734
I2363
I3423
tp654
a(I1733
I2364
I3423
tp655
a(I1732
I2365
I3423
tp656
a(I1731
I2366
I3423
tp657
a(I1730
I2367
I3423
tp658
a(I1729
I2368
I3423
tp659
a(I1728
I2369
I3423
tp660
a(I1727
I2370
I3423
tp661
a(I1726
I2371
I3423
tp662
a(I1725
I2372
I3423
tp663
a(I1724
I2373
I3423
tp664
a(I1723
I2374
I3423
tp665
a(I1722
I2375
I3423
tp666
a(I1721
I2376
I3423
tp667
a(I1720
I2377
I3423
tp668
a(I1719
I2378
I3423
tp669
a(I1718
I2379
I3423
tp670
a(I1717
I2380
I3423
tp671
a(I1716
I2381
I3423
tp672
a(I1715
I2382
I3423
tp673
a(I1714
I2383
I3423
tp674
a(I1713
I2384
I3423
tp675
a(I1712
I2385
I3423
tp676
a(I1711
I2386
I3423
tp677
a(I1710
I2387
I3423
tp678
a(I1709
I2388
I3423
tp679
a(I1708
I2389
I3423
tp680
a(I1707
I2390
I3423
tp681
a(I1706
I2391
I3423
tp682
a(I1705
I2392
I3423
tp683
a(I1704
I2393
I3423
tp684
a(I1703
I2394
I3423
tp685
a(I1702
I2395
I3423
tp686
a(I1701
I2396
I3423
tp687
a(I1700
I2397
I3423
tp688
a(I1699
I2398
I3423
tp689
a(I1698
I2399
I3423
tp690
a.