(lp1
(lp2
I2396
aI1731
aI3455
aa(lp3
I2395
aI1732
aI3455
aa(lp4
I2394
aI1734
aI3455
aa(lp5
I2393
aI1734
aI3455
aa(lp6
I2392
aI1736
aI3455
aa(lp7
I2391
aI1736
aI3455
aa(lp8
I2390
aI1738
aI3455
aa(lp9
I2389
aI1738
aI3455
aa(lp10
I2388
aI1740
aI3455
aa(lp11
I2387
aI1740
aI3455
aa(lp12
I2386
aI1741
aI3455
aa(lp13
I2385
aI1743
aI3455
aa(lp14
I2384
aI1743
aI3455
aa(lp15
I2383
aI1745
aI3455
aa(lp16
I2382
aI1745
aI3455
aa(lp17
I2381
aI1747
aI3455
aa(lp18
I2380
aI1747
aI3455
aa(lp19
I2379
aI1749
aI3455
aa(lp20
I2378
aI1749
aI3455
aa(lp21
I2377
aI1750
aI3455
aa(lp22
I2376
aI1752
aI3455
aa(lp23
I2375
aI1752
aI3455
aa(lp24
I2374
aI1754
aI3455
aa(lp25
I2373
aI1754
aI3455
aa(lp26
I2372
aI1755
aI3455
aa(lp27
I2371
aI1757
aI3455
aa(lp28
I2370
aI1757
aI3455
aa(lp29
I2369
aI1759
aI3455
aa(lp30
I2368
aI1759
aI3455
aa(lp31
I2367
aI1760
aI3455
aa(lp32
I2366
aI1762
aI3455
aa(lp33
I2365
aI1762
aI3455
aa(lp34
I2364
aI1764
aI3455
aa(lp35
I2363
aI1764
aI3455
aa(lp36
I2362
aI1766
aI3455
aa(lp37
I2361
aI1766
aI3455
aa(lp38
I2360
aI1768
aI3455
aa(lp39
I2359
aI1768
aI3455
aa(lp40
I2358
aI1769
aI3455
aa(lp41
I2357
aI1771
aI3455
aa(lp42
I2356
aI1771
aI3455
aa(lp43
I2355
aI1773
aI3455
aa(lp44
I2354
aI1773
aI3455
aa(lp45
I2353
aI1774
aI3455
aa(lp46
I2352
aI1776
aI3455
aa(lp47
I2351
aI1776
aI3455
aa(lp48
I2350
aI1778
aI3455
aa(lp49
I2349
aI1778
aI3455
aa(lp50
I2348
aI1779
aI3455
aa(lp51
I2347
aI1781
aI3455
aa(lp52
I2346
aI1781
aI3455
aa(lp53
I2345
aI1783
aI3455
aa(lp54
I2344
aI1783
aI3455
aa(lp55
I2343
aI1785
aI3455
aa(lp56
I2342
aI1785
aI3455
aa(lp57
I2341
aI1787
aI3455
aa(lp58
I2340
aI1787
aI3455
aa(lp59
I2339
aI1788
aI3455
aa(lp60
I2338
aI1790
aI3455
aa(lp61
I2337
aI1790
aI3455
aa(lp62
I2336
aI1792
aI3455
aa(lp63
I2335
aI1792
aI3455
aa(lp64
I2334
aI1793
aI3455
aa(lp65
I2333
aI1795
aI3455
aa(lp66
I2332
aI1795
aI3455
aa(lp67
I2331
aI1797
aI3455
aa(lp68
I2330
aI1797
aI3455
aa(lp69
I2329
aI1798
aI3455
aa(lp70
I2328
aI1800
aI3455
aa(lp71
I2327
aI1800
aI3455
aa(lp72
I2326
aI1802
aI3455
aa(lp73
I2325
aI1802
aI3455
aa(lp74
I2324
aI1804
aI3455
aa(lp75
I2323
aI1804
aI3455
aa(lp76
I2322
aI1806
aI3455
aa(lp77
I2321
aI1806
aI3455
aa(lp78
I2320
aI1807
aI3455
aa(lp79
I2319
aI1809
aI3455
aa(lp80
I2318
aI1809
aI3455
aa(lp81
I2317
aI1811
aI3455
aa(lp82
I2316
aI1811
aI3455
aa(lp83
I2315
aI1813
aI3455
aa(lp84
I2314
aI1813
aI3455
aa(lp85
I2313
aI1815
aI3455
aa(lp86
I2312
aI1815
aI3455
aa(lp87
I2311
aI1816
aI3455
aa(lp88
I2310
aI1818
aI3455
aa(lp89
I2309
aI1818
aI3455
aa(lp90
I2308
aI1820
aI3455
aa(lp91
I2307
aI1820
aI3455
aa(lp92
I2306
aI1822
aI3455
aa(lp93
I2305
aI1822
aI3455
aa(lp94
I2304
aI1824
aI3455
aa(lp95
I2303
aI1824
aI3455
aa(lp96
I2302
aI1825
aI3455
aa(lp97
I2301
aI1827
aI3455
aa(lp98
I2300
aI1827
aI3455
aa(lp99
I2299
aI1829
aI3455
aa(lp100
I2298
aI1829
aI3455
aa(lp101
I2297
aI1830
aI3455
aa(lp102
I2296
aI1832
aI3455
aa(lp103
I2295
aI1832
aI3455
aa(lp104
I2294
aI1834
aI3455
aa(lp105
I2293
aI1834
aI3455
aa(lp106
I2292
aI1835
aI3455
aa(lp107
I2291
aI1837
aI3455
aa(lp108
I2290
aI1837
aI3455
aa(lp109
I2289
aI1839
aI3455
aa(lp110
I2288
aI1839
aI3455
aa(lp111
I2287
aI1841
aI3455
aa(lp112
I2286
aI1841
aI3455
aa(lp113
I2285
aI1843
aI3455
aa(lp114
I2284
aI1843
aI3455
aa(lp115
I2283
aI1844
aI3455
aa(lp116
I2282
aI1846
aI3455
aa(lp117
I2281
aI1846
aI3455
aa(lp118
I2280
aI1848
aI3455
aa(lp119
I2279
aI1848
aI3455
aa(lp120
I2278
aI1849
aI3455
aa(lp121
I2277
aI1851
aI3455
aa(lp122
I2276
aI1851
aI3455
aa(lp123
I2275
aI1853
aI3455
aa(lp124
I2274
aI1853
aI3455
aa(lp125
I2273
aI1854
aI3455
aa(lp126
I2272
aI1856
aI3455
aa(lp127
I2271
aI1856
aI3455
aa(lp128
I2270
aI1858
aI3455
aa(lp129
I2269
aI1858
aI3455
aa(lp130
I2268
aI1860
aI3455
aa(lp131
I2267
aI1860
aI3455
aa(lp132
I2266
aI1862
aI3455
aa(lp133
I2265
aI1862
aI3455
aa(lp134
I2264
aI1863
aI3455
aa(lp135
I2263
aI1865
aI3455
aa(lp136
I2262
aI1865
aI3455
aa(lp137
I2261
aI1867
aI3455
aa(lp138
I2260
aI1867
aI3455
aa(lp139
I2259
aI1868
aI3455
aa(lp140
I2258
aI1870
aI3455
aa(lp141
I2257
aI1870
aI3455
aa(lp142
I2256
aI1872
aI3455
aa(lp143
I2255
aI1872
aI3455
aa(lp144
I2254
aI1873
aI3455
aa(lp145
I2253
aI1875
aI3455
aa(lp146
I2252
aI1875
aI3455
aa(lp147
I2251
aI1877
aI3455
aa(lp148
I2250
aI1877
aI3455
aa(lp149
I2249
aI1879
aI3455
aa(lp150
I2248
aI1879
aI3455
aa(lp151
I2247
aI1881
aI3455
aa(lp152
I2246
aI1881
aI3455
aa(lp153
I2245
aI1882
aI3455
aa(lp154
I2244
aI1884
aI3455
aa(lp155
I2243
aI1884
aI3455
aa(lp156
I2242
aI1886
aI3455
aa(lp157
I2241
aI1886
aI3455
aa(lp158
I2240
aI1888
aI3455
aa(lp159
I2239
aI1888
aI3455
aa(lp160
I2238
aI1890
aI3455
aa(lp161
I2237
aI1890
aI3455
aa(lp162
I2236
aI1891
aI3455
aa(lp163
I2235
aI1893
aI3455
aa(lp164
I2234
aI1893
aI3455
aa(lp165
I2233
aI1895
aI3455
aa(lp166
I2232
aI1895
aI3455
aa(lp167
I2231
aI1897
aI3455
aa(lp168
I2230
aI1897
aI3455
aa(lp169
I2229
aI1899
aI3455
aa(lp170
I2228
aI1899
aI3455
aa(lp171
I2227
aI1900
aI3455
aa(lp172
I2226
aI1902
aI3455
aa(lp173
I2225
aI1902
aI3455
aa(lp174
I2224
aI1904
aI3455
aa(lp175
I2223
aI1904
aI3455
aa(lp176
I2222
aI1905
aI3455
aa(lp177
I2221
aI1907
aI3455
aa(lp178
I2220
aI1907
aI3455
aa(lp179
I2219
aI1909
aI3455
aa(lp180
I2218
aI1909
aI3455
aa(lp181
I2217
aI1910
aI3455
aa(lp182
I2216
aI1912
aI3455
aa(lp183
I2215
aI1912
aI3455
aa(lp184
I2214
aI1914
aI3455
aa(lp185
I2213
aI1914
aI3455
aa(lp186
I2212
aI1916
aI3455
aa(lp187
I2211
aI1916
aI3455
aa(lp188
I2210
aI1918
aI3455
aa(lp189
I2209
aI1918
aI3455
aa(lp190
I2208
aI1919
aI3455
aa(lp191
I2207
aI1921
aI3455
aa(lp192
I2206
aI1921
aI3455
aa(lp193
I2205
aI1923
aI3455
aa(lp194
I2204
aI1923
aI3455
aa(lp195
I2203
aI1924
aI3455
aa(lp196
I2202
aI1926
aI3455
aa(lp197
I2201
aI1926
aI3455
aa(lp198
I2200
aI1928
aI3455
aa(lp199
I2199
aI1928
aI3455
aa(lp200
I2198
aI1929
aI3455
aa(lp201
I2197
aI1931
aI3455
aa(lp202
I2196
aI1931
aI3455
aa(lp203
I2195
aI1933
aI3455
aa(lp204
I2194
aI1933
aI3455
aa(lp205
I2193
aI1935
aI3455
aa(lp206
I2192
aI1935
aI3455
aa(lp207
I2191
aI1937
aI3455
aa(lp208
I2190
aI1937
aI3455
aa(lp209
I2189
aI1938
aI3455
aa(lp210
I2188
aI1940
aI3455
aa(lp211
I2187
aI1940
aI3455
aa(lp212
I2186
aI1942
aI3455
aa(lp213
I2185
aI1942
aI3455
aa(lp214
I2184
aI1943
aI3455
aa(lp215
I2183
aI1945
aI3455
aa(lp216
I2182
aI1945
aI3455
aa(lp217
I2181
aI1947
aI3455
aa(lp218
I2180
aI1947
aI3455
aa(lp219
I2179
aI1948
aI3455
aa(lp220
I2178
aI1950
aI3455
aa(lp221
I2177
aI1950
aI3455
aa(lp222
I2176
aI1952
aI3455
aa(lp223
I2175
aI1952
aI3455
aa(lp224
I2174
aI1954
aI3455
aa(lp225
I2173
aI1954
aI3455
aa(lp226
I2172
aI1956
aI3455
aa(lp227
I2171
aI1956
aI3455
aa(lp228
I2170
aI1957
aI3455
aa(lp229
I2169
aI1959
aI3455
aa(lp230
I2168
aI1959
aI3455
aa(lp231
I2167
aI1961
aI3455
aa(lp232
I2166
aI1961
aI3455
aa(lp233
I2165
aI1963
aI3455
aa(lp234
I2164
aI1963
aI3455
aa(lp235
I2163
aI1965
aI3455
aa(lp236
I2162
aI1965
aI3455
aa(lp237
I2161
aI1966
aI3455
aa(lp238
I2160
aI1968
aI3455
aa(lp239
I2159
aI1968
aI3455
aa(lp240
I2158
aI1970
aI3455
aa(lp241
I2157
aI1970
aI3455
aa(lp242
I2156
aI1972
aI3455
aa(lp243
I2155
aI1972
aI3455
aa(lp244
I2154
aI1974
aI3455
aa(lp245
I2153
aI1974
aI3455
aa(lp246
I2152
aI1975
aI3455
aa(lp247
I2151
aI1977
aI3455
aa(lp248
I2150
aI1977
aI3455
aa(lp249
I2149
aI1979
aI3455
aa(lp250
I2148
aI1979
aI3455
aa(lp251
I2147
aI1980
aI3455
aa(lp252
I2146
aI1982
aI3455
aa(lp253
I2145
aI1982
aI3455
aa(lp254
I2144
aI1984
aI3455
aa(lp255
I2143
aI1984
aI3455
aa(lp256
I2142
aI1985
aI3455
aa(lp257
I2141
aI1987
aI3455
aa(lp258
I2140
aI1987
aI3455
aa(lp259
I2139
aI1989
aI3455
aa(lp260
I2138
aI1989
aI3455
aa(lp261
I2137
aI1991
aI3455
aa(lp262
I2136
aI1991
aI3455
aa(lp263
I2135
aI1993
aI3455
aa(lp264
I2134
aI1993
aI3455
aa(lp265
I2133
aI1994
aI3455
aa(lp266
I2132
aI1996
aI3455
aa(lp267
I2131
aI1996
aI3455
aa(lp268
I2130
aI1998
aI3455
aa(lp269
I2129
aI1998
aI3455
aa(lp270
I2128
aI1999
aI3455
aa(lp271
I2127
aI2001
aI3455
aa(lp272
I2126
aI2001
aI3455
aa(lp273
I2125
aI2003
aI3455
aa(lp274
I2124
aI2003
aI3455
aa(lp275
I2123
aI2004
aI3455
aa(lp276
I2122
aI2006
aI3455
aa(lp277
I2121
aI2006
aI3455
aa(lp278
I2120
aI2008
aI3455
aa(lp279
I2119
aI2008
aI3455
aa(lp280
I2118
aI2010
aI3455
aa(lp281
I2117
aI2010
aI3455
aa(lp282
I2116
aI2012
aI3455
aa(lp283
I2115
aI2012
aI3455
aa(lp284
I2114
aI2013
aI3455
aa(lp285
I2113
aI2015
aI3455
aa(lp286
I2112
aI2015
aI3455
aa(lp287
I2111
aI2017
aI3455
aa(lp288
I2110
aI2017
aI3455
aa(lp289
I2109
aI2018
aI3455
aa(lp290
I2108
aI2020
aI3455
aa(lp291
I2107
aI2020
aI3455
aa(lp292
I2106
aI2022
aI3455
aa(lp293
I2105
aI2022
aI3455
aa(lp294
I2104
aI2023
aI3455
aa(lp295
I2103
aI2025
aI3455
aa(lp296
I2102
aI2025
aI3455
aa(lp297
I2101
aI2027
aI3455
aa(lp298
I2100
aI2027
aI3455
aa(lp299
I2099
aI2029
aI3455
aa(lp300
I2098
aI2029
aI3455
aa(lp301
I2097
aI2031
aI3455
aa(lp302
I2096
aI2031
aI3455
aa(lp303
I2095
aI2032
aI3455
aa(lp304
I2094
aI2034
aI3455
aa(lp305
I2093
aI2034
aI3455
aa(lp306
I2092
aI2036
aI3455
aa(lp307
I2091
aI2036
aI3455
aa(lp308
I2090
aI2038
aI3455
aa(lp309
I2089
aI2038
aI3455
aa(lp310
I2088
aI2040
aI3455
aa(lp311
I2087
aI2040
aI3455
aa(lp312
I2086
aI2041
aI3455
aa(lp313
I2085
aI2043
aI3455
aa(lp314
I2084
aI2043
aI3455
aa(lp315
I2083
aI2045
aI3455
aa(lp316
I2082
aI2045
aI3455
aa(lp317
I2081
aI2047
aI3455
aa(lp318
I2080
aI2047
aI3455
aa(lp319
I2079
aI2049
aI3455
aa(lp320
I2078
aI2049
aI3455
aa(lp321
I2077
aI2050
aI3455
aa(lp322
I2076
aI2052
aI3455
aa(lp323
I2075
aI2052
aI3455
aa(lp324
I2074
aI2054
aI3455
aa(lp325
I2073
aI2054
aI3455
aa(lp326
I2072
aI2055
aI3455
aa(lp327
I2071
aI2057
aI3455
aa(lp328
I2070
aI2057
aI3455
aa(lp329
I2069
aI2059
aI3455
aa(lp330
I2068
aI2059
aI3455
aa(lp331
I2067
aI2060
aI3455
aa(lp332
I2066
aI2062
aI3455
aa(lp333
I2065
aI2062
aI3455
aa(lp334
I2064
aI2064
aI3455
aa(lp335
I2063
aI2064
aI3455
aa(lp336
I2062
aI2066
aI3455
aa(lp337
I2061
aI2066
aI3455
aa(lp338
I2060
aI2068
aI3455
aa(lp339
I2059
aI2068
aI3455
aa(lp340
I2058
aI2069
aI3455
aa(lp341
I2057
aI2071
aI3455
aa(lp342
I2056
aI2071
aI3455
aa(lp343
I2055
aI2073
aI3455
aa(lp344
I2054
aI2073
aI3455
aa(lp345
I2053
aI2074
aI3455
aa(lp346
I2052
aI2076
aI3455
aa(lp347
I2051
aI2076
aI3455
aa(lp348
I2050
aI2078
aI3455
aa(lp349
I2049
aI2078
aI3455
aa(lp350
I2048
aI2079
aI3455
aa(lp351
I2047
aI2081
aI3455
aa(lp352
I2046
aI2081
aI3455
aa(lp353
I2045
aI2083
aI3455
aa(lp354
I2044
aI2083
aI3455
aa(lp355
I2043
aI2085
aI3455
aa(lp356
I2042
aI2085
aI3455
aa(lp357
I2041
aI2087
aI3455
aa(lp358
I2040
aI2087
aI3455
aa(lp359
I2039
aI2088
aI3455
aa(lp360
I2038
aI2090
aI3455
aa(lp361
I2037
aI2090
aI3455
aa(lp362
I2036
aI2092
aI3455
aa(lp363
I2035
aI2092
aI3455
aa(lp364
I2034
aI2093
aI3455
aa(lp365
I2033
aI2095
aI3455
aa(lp366
I2032
aI2095
aI3455
aa(lp367
I2031
aI2097
aI3455
aa(lp368
I2030
aI2097
aI3455
aa(lp369
I2029
aI2098
aI3455
aa(lp370
I2028
aI2100
aI3455
aa(lp371
I2027
aI2100
aI3455
aa(lp372
I2026
aI2102
aI3455
aa(lp373
I2025
aI2102
aI3455
aa(lp374
I2024
aI2104
aI3455
aa(lp375
I2023
aI2104
aI3455
aa(lp376
I2022
aI2106
aI3455
aa(lp377
I2021
aI2106
aI3455
aa(lp378
I2020
aI2107
aI3455
aa(lp379
I2019
aI2109
aI3455
aa(lp380
I2018
aI2109
aI3455
aa(lp381
I2017
aI2111
aI3455
aa(lp382
I2016
aI2111
aI3455
aa(lp383
I2015
aI2113
aI3455
aa(lp384
I2014
aI2113
aI3455
aa(lp385
I2013
aI2115
aI3455
aa(lp386
I2012
aI2115
aI3455
aa(lp387
I2011
aI2116
aI3455
aa(lp388
I2010
aI2118
aI3455
aa(lp389
I2009
aI2118
aI3455
aa(lp390
I2008
aI2120
aI3455
aa(lp391
I2007
aI2120
aI3455
aa(lp392
I2006
aI2122
aI3455
aa(lp393
I2005
aI2122
aI3455
aa(lp394
I2004
aI2124
aI3455
aa(lp395
I2003
aI2124
aI3455
aa(lp396
I2002
aI2125
aI3455
aa(lp397
I2001
aI2127
aI3455
aa(lp398
I2000
aI2127
aI3455
aa(lp399
I1999
aI2129
aI3455
aa(lp400
I1998
aI2129
aI3455
aa(lp401
I1997
aI2130
aI3455
aa(lp402
I1996
aI2132
aI3455
aa(lp403
I1995
aI2132
aI3455
aa(lp404
I1994
aI2134
aI3455
aa(lp405
I1993
aI2134
aI3455
aa(lp406
I1992
aI2135
aI3455
aa(lp407
I1991
aI2137
aI3455
aa(lp408
I1990
aI2137
aI3455
aa(lp409
I1989
aI2139
aI3455
aa(lp410
I1988
aI2139
aI3455
aa(lp411
I1987
aI2141
aI3455
aa(lp412
I1986
aI2141
aI3455
aa(lp413
I1985
aI2143
aI3455
aa(lp414
I1984
aI2143
aI3455
aa(lp415
I1983
aI2144
aI3455
aa(lp416
I1982
aI2146
aI3455
aa(lp417
I1981
aI2146
aI3455
aa(lp418
I1980
aI2148
aI3455
aa(lp419
I1979
aI2148
aI3455
aa(lp420
I1978
aI2149
aI3455
aa(lp421
I1977
aI2151
aI3455
aa(lp422
I1976
aI2151
aI3455
aa(lp423
I1975
aI2153
aI3455
aa(lp424
I1974
aI2153
aI3455
aa(lp425
I1973
aI2154
aI3455
aa(lp426
I1972
aI2156
aI3455
aa(lp427
I1971
aI2156
aI3455
aa(lp428
I1970
aI2158
aI3455
aa(lp429
I1969
aI2158
aI3455
aa(lp430
I1968
aI2160
aI3455
aa(lp431
I1967
aI2160
aI3455
aa(lp432
I1966
aI2162
aI3455
aa(lp433
I1965
aI2162
aI3455
aa(lp434
I1964
aI2163
aI3455
aa(lp435
I1963
aI2165
aI3455
aa(lp436
I1962
aI2165
aI3455
aa(lp437
I1961
aI2167
aI3455
aa(lp438
I1960
aI2167
aI3455
aa(lp439
I1959
aI2168
aI3455
aa(lp440
I1958
aI2170
aI3455
aa(lp441
I1957
aI2170
aI3455
aa(lp442
I1956
aI2172
aI3455
aa(lp443
I1955
aI2172
aI3455
aa(lp444
I1954
aI2173
aI3455
aa(lp445
I1953
aI2175
aI3455
aa(lp446
I1952
aI2175
aI3455
aa(lp447
I1951
aI2177
aI3455
aa(lp448
I1950
aI2177
aI3455
aa(lp449
I1949
aI2179
aI3455
aa(lp450
I1948
aI2179
aI3455
aa(lp451
I1947
aI2181
aI3455
aa(lp452
I1946
aI2181
aI3455
aa(lp453
I1945
aI2182
aI3455
aa(lp454
I1944
aI2184
aI3455
aa(lp455
I1943
aI2184
aI3455
aa(lp456
I1942
aI2186
aI3455
aa(lp457
I1941
aI2186
aI3455
aa(lp458
I1940
aI2188
aI3455
aa(lp459
I1939
aI2188
aI3455
aa(lp460
I1938
aI2190
aI3455
aa(lp461
I1937
aI2190
aI3455
aa(lp462
I1936
aI2191
aI3455
aa(lp463
I1935
aI2193
aI3455
aa(lp464
I1934
aI2193
aI3455
aa(lp465
I1933
aI2195
aI3455
aa(lp466
I1932
aI2195
aI3455
aa(lp467
I1931
aI2197
aI3455
aa(lp468
I1930
aI2197
aI3455
aa(lp469
I1929
aI2199
aI3455
aa(lp470
I1928
aI2199
aI3455
aa(lp471
I1927
aI2200
aI3455
aa(lp472
I1926
aI2202
aI3455
aa(lp473
I1925
aI2202
aI3455
aa(lp474
I1924
aI2204
aI3455
aa(lp475
I1923
aI2204
aI3455
aa(lp476
I1922
aI2205
aI3455
aa(lp477
I1921
aI2207
aI3455
aa(lp478
I1920
aI2207
aI3455
aa(lp479
I1919
aI2209
aI3455
aa(lp480
I1918
aI2209
aI3455
aa(lp481
I1917
aI2210
aI3455
aa(lp482
I1916
aI2212
aI3455
aa(lp483
I1915
aI2212
aI3455
aa(lp484
I1914
aI2214
aI3455
aa(lp485
I1913
aI2214
aI3455
aa(lp486
I1912
aI2216
aI3455
aa(lp487
I1911
aI2216
aI3455
aa(lp488
I1910
aI2218
aI3455
aa(lp489
I1909
aI2218
aI3455
aa(lp490
I1908
aI2219
aI3455
aa(lp491
I1907
aI2221
aI3455
aa(lp492
I1906
aI2221
aI3455
aa(lp493
I1905
aI2223
aI3455
aa(lp494
I1904
aI2223
aI3455
aa(lp495
I1903
aI2224
aI3455
aa(lp496
I1902
aI2226
aI3455
aa(lp497
I1901
aI2226
aI3455
aa(lp498
I1900
aI2228
aI3455
aa(lp499
I1899
aI2228
aI3455
aa(lp500
I1898
aI2229
aI3455
aa(lp501
I1897
aI2231
aI3455
aa(lp502
I1896
aI2231
aI3455
aa(lp503
I1895
aI2233
aI3455
aa(lp504
I1894
aI2233
aI3455
aa(lp505
I1893
aI2235
aI3455
aa(lp506
I1892
aI2235
aI3455
aa(lp507
I1891
aI2237
aI3455
aa(lp508
I1890
aI2237
aI3455
aa(lp509
I1889
aI2238
aI3455
aa(lp510
I1888
aI2240
aI3455
aa(lp511
I1887
aI2240
aI3455
aa(lp512
I1886
aI2242
aI3455
aa(lp513
I1885
aI2242
aI3455
aa(lp514
I1884
aI2243
aI3455
aa(lp515
I1883
aI2245
aI3455
aa(lp516
I1882
aI2245
aI3455
aa(lp517
I1881
aI2247
aI3455
aa(lp518
I1880
aI2247
aI3455
aa(lp519
I1879
aI2248
aI3455
aa(lp520
I1878
aI2250
aI3455
aa(lp521
I1877
aI2250
aI3455
aa(lp522
I1876
aI2252
aI3455
aa(lp523
I1875
aI2252
aI3455
aa(lp524
I1874
aI2254
aI3455
aa(lp525
I1873
aI2254
aI3455
aa(lp526
I1872
aI2256
aI3455
aa(lp527
I1871
aI2256
aI3455
aa(lp528
I1870
aI2257
aI3455
aa(lp529
I1869
aI2259
aI3455
aa(lp530
I1868
aI2259
aI3455
aa(lp531
I1867
aI2261
aI3455
aa(lp532
I1866
aI2261
aI3455
aa(lp533
I1865
aI2263
aI3455
aa(lp534
I1864
aI2263
aI3455
aa(lp535
I1863
aI2265
aI3455
aa(lp536
I1862
aI2265
aI3455
aa(lp537
I1861
aI2266
aI3455
aa(lp538
I1860
aI2268
aI3455
aa(lp539
I1859
aI2268
aI3455
aa(lp540
I1858
aI2270
aI3455
aa(lp541
I1857
aI2270
aI3455
aa(lp542
I1856
aI2272
aI3455
aa(lp543
I1855
aI2272
aI3455
aa(lp544
I1854
aI2274
aI3455
aa(lp545
I1853
aI2274
aI3455
aa(lp546
I1852
aI2275
aI3455
aa(lp547
I1851
aI2277
aI3455
aa(lp548
I1850
aI2277
aI3455
aa(lp549
I1849
aI2279
aI3455
aa(lp550
I1848
aI2279
aI3455
aa(lp551
I1847
aI2280
aI3455
aa(lp552
I1846
aI2282
aI3455
aa(lp553
I1845
aI2282
aI3455
aa(lp554
I1844
aI2284
aI3455
aa(lp555
I1843
aI2284
aI3455
aa(lp556
I1842
aI2285
aI3455
aa(lp557
I1841
aI2287
aI3455
aa(lp558
I1840
aI2287
aI3455
aa(lp559
I1839
aI2289
aI3455
aa(lp560
I1838
aI2289
aI3455
aa(lp561
I1837
aI2291
aI3455
aa(lp562
I1836
aI2291
aI3455
aa(lp563
I1835
aI2293
aI3455
aa(lp564
I1834
aI2293
aI3455
aa(lp565
I1833
aI2294
aI3455
aa(lp566
I1832
aI2296
aI3455
aa(lp567
I1831
aI2296
aI3455
aa(lp568
I1830
aI2298
aI3455
aa(lp569
I1829
aI2298
aI3455
aa(lp570
I1828
aI2299
aI3455
aa(lp571
I1827
aI2301
aI3455
aa(lp572
I1826
aI2301
aI3455
aa(lp573
I1825
aI2303
aI3455
aa(lp574
I1824
aI2303
aI3455
aa(lp575
I1823
aI2304
aI3455
aa(lp576
I1822
aI2306
aI3455
aa(lp577
I1821
aI2306
aI3455
aa(lp578
I1820
aI2308
aI3455
aa(lp579
I1819
aI2308
aI3455
aa(lp580
I1818
aI2310
aI3455
aa(lp581
I1817
aI2310
aI3455
aa(lp582
I1816
aI2312
aI3455
aa(lp583
I1815
aI2312
aI3455
aa(lp584
I1814
aI2313
aI3455
aa(lp585
I1813
aI2315
aI3455
aa(lp586
I1812
aI2315
aI3455
aa(lp587
I1811
aI2317
aI3455
aa(lp588
I1810
aI2317
aI3455
aa(lp589
I1809
aI2318
aI3455
aa(lp590
I1808
aI2320
aI3455
aa(lp591
I1807
aI2320
aI3455
aa(lp592
I1806
aI2322
aI3455
aa(lp593
I1805
aI2322
aI3455
aa(lp594
I1804
aI2323
aI3455
aa(lp595
I1803
aI2325
aI3455
aa(lp596
I1802
aI2325
aI3455
aa(lp597
I1801
aI2327
aI3455
aa(lp598
I1800
aI2327
aI3455
aa(lp599
I1799
aI2329
aI3455
aa(lp600
I1798
aI2329
aI3455
aa(lp601
I1797
aI2331
aI3455
aa(lp602
I1796
aI2331
aI3455
aa(lp603
I1795
aI2332
aI3455
aa(lp604
I1794
aI2334
aI3455
aa(lp605
I1793
aI2334
aI3455
aa(lp606
I1792
aI2336
aI3455
aa(lp607
I1791
aI2336
aI3455
aa(lp608
I1790
aI2338
aI3455
aa(lp609
I1789
aI2338
aI3455
aa(lp610
I1788
aI2340
aI3455
aa(lp611
I1787
aI2340
aI3455
aa(lp612
I1786
aI2341
aI3455
aa(lp613
I1785
aI2343
aI3455
aa(lp614
I1784
aI2343
aI3455
aa(lp615
I1783
aI2345
aI3455
aa(lp616
I1782
aI2345
aI3455
aa(lp617
I1781
aI2347
aI3455
aa(lp618
I1780
aI2347
aI3455
aa(lp619
I1779
aI2349
aI3455
aa(lp620
I1778
aI2349
aI3455
aa(lp621
I1777
aI2350
aI3455
aa(lp622
I1776
aI2352
aI3455
aa(lp623
I1775
aI2352
aI3455
aa(lp624
I1774
aI2354
aI3455
aa(lp625
I1773
aI2354
aI3455
aa(lp626
I1772
aI2355
aI3455
aa(lp627
I1771
aI2357
aI3455
aa(lp628
I1770
aI2357
aI3455
aa(lp629
I1769
aI2359
aI3455
aa(lp630
I1768
aI2359
aI3455
aa(lp631
I1767
aI2360
aI3455
aa(lp632
I1766
aI2362
aI3455
aa(lp633
I1765
aI2362
aI3455
aa(lp634
I1764
aI2364
aI3455
aa(lp635
I1763
aI2364
aI3455
aa(lp636
I1762
aI2366
aI3455
aa(lp637
I1761
aI2366
aI3455
aa(lp638
I1760
aI2368
aI3455
aa(lp639
I1759
aI2368
aI3455
aa(lp640
I1758
aI2369
aI3455
aa(lp641
I1757
aI2371
aI3455
aa(lp642
I1756
aI2371
aI3455
aa(lp643
I1755
aI2373
aI3455
aa(lp644
I1754
aI2373
aI3455
aa(lp645
I1753
aI2374
aI3455
aa(lp646
I1752
aI2376
aI3455
aa(lp647
I1751
aI2376
aI3455
aa(lp648
I1750
aI2378
aI3455
aa(lp649
I1749
aI2378
aI3455
aa(lp650
I1748
aI2379
aI3455
aa(lp651
I1747
aI2381
aI3455
aa(lp652
I1746
aI2381
aI3455
aa(lp653
I1745
aI2383
aI3455
aa(lp654
I1744
aI2383
aI3455
aa(lp655
I1743
aI2385
aI3455
aa(lp656
I1742
aI2385
aI3455
aa(lp657
I1741
aI2387
aI3455
aa(lp658
I1740
aI2387
aI3455
aa(lp659
I1739
aI2388
aI3455
aa(lp660
I1738
aI2390
aI3455
aa(lp661
I1737
aI2390
aI3455
aa(lp662
I1736
aI2392
aI3455
aa(lp663
I1735
aI2392
aI3455
aa(lp664
I1734
aI2393
aI3455
aa(lp665
I1733
aI2395
aI3455
aa(lp666
I1732
aI2395
aI3455
aa(lp667
I1731
aI2397
aI3455
aa(lp668
I1730
aI2397
aI3455
aa(lp669
I1729
aI2398
aI3455
aa(lp670
I1728
aI2399
aI3455
aa.