(lp1
(I2385
I1711
I3440
tp2
a(I2386
I1712
I3440
tp3
a(I2387
I1713
I3440
tp4
a(I2388
I1714
I3440
tp5
a(I2389
I1715
I3440
tp6
a(I2389
I1716
I3440
tp7
a(I2390
I1717
I3440
tp8
a(I2391
I1718
I3440
tp9
a(I2392
I1719
I3440
tp10
a(I2391
I1720
I3440
tp11
a(I2390
I1721
I3440
tp12
a(I2389
I1722
I3440
tp13
a(I2389
I1723
I3440
tp14
a(I2388
I1724
I3440
tp15
a(I2387
I1725
I3440
tp16
a(I2386
I1726
I3440
tp17
a(I2385
I1727
I3440
tp18
a(I2384
I1728
I3440
tp19
a(I2383
I1729
I3440
tp20
a(I2382
I1730
I3440
tp21
a(I2381
I1731
I3440
tp22
a(I2380
I1732
I3440
tp23
a(I2379
I1733
I3440
tp24
a(I2378
I1734
I3440
tp25
a(I2377
I1735
I3440
tp26
a(I2376
I1736
I3440
tp27
a(I2375
I1737
I3440
tp28
a(I2374
I1738
I3440
tp29
a(I2373
I1739
I3440
tp30
a(I2372
I1740
I3440
tp31
a(I2371
I1741
I3440
tp32
a(I2370
I1742
I3440
tp33
a(I2369
I1743
I3440
tp34
a(I2368
I1744
I3440
tp35
a(I2367
I1745
I3440
tp36
a(I2366
I1746
I3440
tp37
a(I2365
I1747
I3440
tp38
a(I2364
I1748
I3440
tp39
a(I2363
I1749
I3440
tp40
a(I2362
I1750
I3440
tp41
a(I2361
I1751
I3440
tp42
a(I2360
I1752
I3440
tp43
a(I2359
I1753
I3440
tp44
a(I2358
I1754
I3440
tp45
a(I2357
I1755
I3440
tp46
a(I2356
I1756
I3440
tp47
a(I2355
I1757
I3440
tp48
a(I2354
I1758
I3440
tp49
a(I2353
I1759
I3440
tp50
a(I2352
I1760
I3440
tp51
a(I2351
I1761
I3440
tp52
a(I2350
I1762
I3440
tp53
a(I2349
I1763
I3440
tp54
a(I2348
I1764
I3440
tp55
a(I2347
I1765
I3440
tp56
a(I2346
I1766
I3440
tp57
a(I2345
I1767
I3440
tp58
a(I2344
I1768
I3440
tp59
a(I2343
I1769
I3440
tp60
a(I2342
I1770
I3440
tp61
a(I2341
I1771
I3440
tp62
a(I2340
I1772
I3440
tp63
a(I2339
I1773
I3440
tp64
a(I2338
I1774
I3440
tp65
a(I2337
I1775
I3440
tp66
a(I2336
I1776
I3440
tp67
a(I2335
I1777
I3440
tp68
a(I2334
I1778
I3440
tp69
a(I2333
I1779
I3440
tp70
a(I2332
I1780
I3440
tp71
a(I2331
I1781
I3440
tp72
a(I2330
I1782
I3440
tp73
a(I2329
I1783
I3440
tp74
a(I2328
I1784
I3440
tp75
a(I2327
I1785
I3440
tp76
a(I2326
I1786
I3440
tp77
a(I2325
I1787
I3440
tp78
a(I2324
I1788
I3440
tp79
a(I2323
I1789
I3440
tp80
a(I2322
I1790
I3440
tp81
a(I2321
I1791
I3440
tp82
a(I2320
I1792
I3440
tp83
a(I2319
I1793
I3440
tp84
a(I2318
I1794
I3440
tp85
a(I2317
I1795
I3440
tp86
a(I2316
I1796
I3440
tp87
a(I2315
I1797
I3440
tp88
a(I2314
I1798
I3440
tp89
a(I2313
I1799
I3440
tp90
a(I2312
I1800
I3440
tp91
a(I2311
I1801
I3440
tp92
a(I2310
I1802
I3440
tp93
a(I2309
I1803
I3440
tp94
a(I2308
I1804
I3440
tp95
a(I2307
I1805
I3440
tp96
a(I2306
I1806
I3440
tp97
a(I2305
I1807
I3440
tp98
a(I2304
I1808
I3440
tp99
a(I2303
I1809
I3440
tp100
a(I2302
I1810
I3440
tp101
a(I2301
I1811
I3440
tp102
a(I2300
I1812
I3440
tp103
a(I2299
I1813
I3440
tp104
a(I2298
I1814
I3440
tp105
a(I2297
I1815
I3440
tp106
a(I2296
I1816
I3440
tp107
a(I2295
I1817
I3440
tp108
a(I2294
I1818
I3440
tp109
a(I2293
I1819
I3440
tp110
a(I2292
I1820
I3440
tp111
a(I2291
I1821
I3440
tp112
a(I2290
I1822
I3440
tp113
a(I2289
I1823
I3440
tp114
a(I2288
I1824
I3440
tp115
a(I2287
I1825
I3440
tp116
a(I2286
I1826
I3440
tp117
a(I2285
I1827
I3440
tp118
a(I2284
I1828
I3440
tp119
a(I2283
I1829
I3440
tp120
a(I2282
I1830
I3440
tp121
a(I2281
I1831
I3440
tp122
a(I2280
I1832
I3440
tp123
a(I2279
I1833
I3440
tp124
a(I2278
I1834
I3440
tp125
a(I2277
I1835
I3440
tp126
a(I2276
I1836
I3440
tp127
a(I2275
I1837
I3440
tp128
a(I2274
I1838
I3440
tp129
a(I2273
I1839
I3440
tp130
a(I2272
I1840
I3440
tp131
a(I2271
I1841
I3440
tp132
a(I2270
I1842
I3440
tp133
a(I2269
I1843
I3440
tp134
a(I2268
I1844
I3440
tp135
a(I2267
I1845
I3440
tp136
a(I2266
I1846
I3440
tp137
a(I2265
I1847
I3440
tp138
a(I2264
I1848
I3440
tp139
a(I2263
I1849
I3440
tp140
a(I2262
I1850
I3440
tp141
a(I2261
I1851
I3440
tp142
a(I2260
I1852
I3440
tp143
a(I2259
I1853
I3440
tp144
a(I2258
I1854
I3440
tp145
a(I2257
I1855
I3440
tp146
a(I2256
I1856
I3440
tp147
a(I2255
I1857
I3440
tp148
a(I2254
I1858
I3440
tp149
a(I2253
I1859
I3440
tp150
a(I2252
I1860
I3440
tp151
a(I2251
I1861
I3440
tp152
a(I2250
I1862
I3440
tp153
a(I2249
I1863
I3440
tp154
a(I2248
I1864
I3440
tp155
a(I2247
I1865
I3440
tp156
a(I2246
I1866
I3440
tp157
a(I2245
I1867
I3440
tp158
a(I2244
I1868
I3440
tp159
a(I2243
I1869
I3440
tp160
a(I2242
I1870
I3440
tp161
a(I2241
I1871
I3440
tp162
a(I2240
I1872
I3440
tp163
a(I2239
I1873
I3440
tp164
a(I2238
I1874
I3440
tp165
a(I2237
I1875
I3440
tp166
a(I2236
I1876
I3440
tp167
a(I2235
I1877
I3440
tp168
a(I2234
I1878
I3440
tp169
a(I2233
I1879
I3440
tp170
a(I2232
I1880
I3440
tp171
a(I2231
I1881
I3440
tp172
a(I2230
I1882
I3440
tp173
a(I2229
I1883
I3440
tp174
a(I2228
I1884
I3440
tp175
a(I2227
I1885
I3440
tp176
a(I2226
I1886
I3440
tp177
a(I2225
I1887
I3440
tp178
a(I2224
I1888
I3440
tp179
a(I2223
I1889
I3440
tp180
a(I2222
I1890
I3440
tp181
a(I2221
I1891
I3440
tp182
a(I2220
I1892
I3440
tp183
a(I2219
I1893
I3440
tp184
a(I2218
I1894
I3440
tp185
a(I2217
I1895
I3440
tp186
a(I2216
I1896
I3440
tp187
a(I2215
I1897
I3440
tp188
a(I2214
I1898
I3440
tp189
a(I2213
I1899
I3440
tp190
a(I2212
I1900
I3440
tp191
a(I2211
I1901
I3440
tp192
a(I2210
I1902
I3440
tp193
a(I2209
I1903
I3440
tp194
a(I2208
I1904
I3440
tp195
a(I2207
I1905
I3440
tp196
a(I2206
I1906
I3440
tp197
a(I2205
I1907
I3440
tp198
a(I2204
I1908
I3440
tp199
a(I2203
I1909
I3440
tp200
a(I2202
I1910
I3440
tp201
a(I2201
I1911
I3440
tp202
a(I2200
I1912
I3440
tp203
a(I2199
I1913
I3440
tp204
a(I2198
I1914
I3440
tp205
a(I2197
I1915
I3440
tp206
a(I2196
I1916
I3440
tp207
a(I2195
I1917
I3440
tp208
a(I2194
I1918
I3440
tp209
a(I2193
I1919
I3440
tp210
a(I2192
I1920
I3440
tp211
a(I2191
I1921
I3440
tp212
a(I2190
I1922
I3440
tp213
a(I2189
I1923
I3440
tp214
a(I2188
I1924
I3440
tp215
a(I2187
I1925
I3440
tp216
a(I2186
I1926
I3440
tp217
a(I2185
I1927
I3440
tp218
a(I2184
I1928
I3440
tp219
a(I2183
I1929
I3440
tp220
a(I2182
I1930
I3440
tp221
a(I2181
I1931
I3440
tp222
a(I2180
I1932
I3440
tp223
a(I2179
I1933
I3440
tp224
a(I2178
I1934
I3440
tp225
a(I2177
I1935
I3440
tp226
a(I2176
I1936
I3440
tp227
a(I2175
I1937
I3440
tp228
a(I2174
I1938
I3440
tp229
a(I2173
I1939
I3440
tp230
a(I2172
I1940
I3440
tp231
a(I2171
I1941
I3440
tp232
a(I2170
I1942
I3440
tp233
a(I2169
I1943
I3440
tp234
a(I2168
I1944
I3440
tp235
a(I2167
I1945
I3440
tp236
a(I2166
I1946
I3440
tp237
a(I2165
I1947
I3440
tp238
a(I2164
I1948
I3440
tp239
a(I2163
I1949
I3440
tp240
a(I2162
I1950
I3440
tp241
a(I2161
I1951
I3440
tp242
a(I2160
I1952
I3440
tp243
a(I2159
I1953
I3440
tp244
a(I2158
I1954
I3440
tp245
a(I2157
I1955
I3440
tp246
a(I2156
I1956
I3440
tp247
a(I2155
I1957
I3440
tp248
a(I2154
I1958
I3440
tp249
a(I2153
I1959
I3440
tp250
a(I2152
I1960
I3440
tp251
a(I2151
I1961
I3440
tp252
a(I2150
I1962
I3440
tp253
a(I2149
I1963
I3440
tp254
a(I2148
I1964
I3440
tp255
a(I2147
I1965
I3440
tp256
a(I2146
I1966
I3440
tp257
a(I2145
I1967
I3440
tp258
a(I2144
I1968
I3440
tp259
a(I2143
I1969
I3440
tp260
a(I2142
I1970
I3440
tp261
a(I2141
I1971
I3440
tp262
a(I2140
I1972
I3440
tp263
a(I2139
I1973
I3440
tp264
a(I2138
I1974
I3440
tp265
a(I2137
I1975
I3440
tp266
a(I2136
I1976
I3440
tp267
a(I2135
I1977
I3440
tp268
a(I2134
I1978
I3440
tp269
a(I2133
I1979
I3440
tp270
a(I2132
I1980
I3440
tp271
a(I2131
I1981
I3440
tp272
a(I2130
I1982
I3440
tp273
a(I2129
I1983
I3440
tp274
a(I2128
I1984
I3440
tp275
a(I2127
I1985
I3440
tp276
a(I2126
I1986
I3440
tp277
a(I2125
I1987
I3440
tp278
a(I2124
I1988
I3440
tp279
a(I2123
I1989
I3440
tp280
a(I2122
I1990
I3440
tp281
a(I2121
I1991
I3440
tp282
a(I2120
I1992
I3440
tp283
a(I2119
I1993
I3440
tp284
a(I2118
I1994
I3440
tp285
a(I2117
I1995
I3440
tp286
a(I2116
I1996
I3440
tp287
a(I2115
I1997
I3440
tp288
a(I2114
I1998
I3440
tp289
a(I2113
I1999
I3440
tp290
a(I2112
I2000
I3440
tp291
a(I2111
I2001
I3440
tp292
a(I2110
I2002
I3440
tp293
a(I2109
I2003
I3440
tp294
a(I2108
I2004
I3440
tp295
a(I2107
I2005
I3440
tp296
a(I2106
I2006
I3440
tp297
a(I2105
I2007
I3440
tp298
a(I2104
I2008
I3440
tp299
a(I2103
I2009
I3440
tp300
a(I2102
I2010
I3440
tp301
a(I2101
I2011
I3440
tp302
a(I2100
I2012
I3440
tp303
a(I2099
I2013
I3440
tp304
a(I2098
I2014
I3440
tp305
a(I2097
I2015
I3440
tp306
a(I2096
I2016
I3440
tp307
a(I2095
I2017
I3440
tp308
a(I2094
I2018
I3440
tp309
a(I2093
I2019
I3440
tp310
a(I2092
I2020
I3440
tp311
a(I2091
I2021
I3440
tp312
a(I2090
I2022
I3440
tp313
a(I2089
I2023
I3440
tp314
a(I2088
I2024
I3440
tp315
a(I2087
I2025
I3440
tp316
a(I2086
I2026
I3440
tp317
a(I2085
I2027
I3440
tp318
a(I2084
I2028
I3440
tp319
a(I2083
I2029
I3440
tp320
a(I2082
I2030
I3440
tp321
a(I2081
I2031
I3440
tp322
a(I2080
I2032
I3440
tp323
a(I2079
I2033
I3440
tp324
a(I2078
I2034
I3440
tp325
a(I2077
I2035
I3440
tp326
a(I2076
I2036
I3440
tp327
a(I2075
I2037
I3440
tp328
a(I2074
I2038
I3440
tp329
a(I2073
I2039
I3440
tp330
a(I2072
I2040
I3440
tp331
a(I2071
I2041
I3440
tp332
a(I2070
I2042
I3440
tp333
a(I2069
I2043
I3440
tp334
a(I2068
I2044
I3440
tp335
a(I2067
I2045
I3440
tp336
a(I2066
I2046
I3440
tp337
a(I2065
I2047
I3440
tp338
a(I2064
I2048
I3440
tp339
a(I2063
I2049
I3440
tp340
a(I2062
I2050
I3440
tp341
a(I2061
I2051
I3440
tp342
a(I2060
I2052
I3440
tp343
a(I2059
I2053
I3440
tp344
a(I2058
I2054
I3440
tp345
a(I2057
I2055
I3440
tp346
a(I2056
I2056
I3440
tp347
a(I2055
I2057
I3440
tp348
a(I2054
I2058
I3440
tp349
a(I2053
I2059
I3440
tp350
a(I2052
I2060
I3440
tp351
a(I2051
I2061
I3440
tp352
a(I2050
I2062
I3440
tp353
a(I2049
I2063
I3440
tp354
a(I2048
I2064
I3440
tp355
a(I2047
I2065
I3440
tp356
a(I2046
I2066
I3440
tp357
a(I2045
I2067
I3440
tp358
a(I2044
I2068
I3440
tp359
a(I2043
I2069
I3440
tp360
a(I2042
I2070
I3440
tp361
a(I2041
I2071
I3440
tp362
a(I2040
I2072
I3440
tp363
a(I2039
I2073
I3440
tp364
a(I2038
I2074
I3440
tp365
a(I2037
I2075
I3440
tp366
a(I2036
I2076
I3440
tp367
a(I2035
I2077
I3440
tp368
a(I2034
I2078
I3440
tp369
a(I2033
I2079
I3440
tp370
a(I2032
I2080
I3440
tp371
a(I2031
I2081
I3440
tp372
a(I2030
I2082
I3440
tp373
a(I2029
I2083
I3440
tp374
a(I2028
I2084
I3440
tp375
a(I2027
I2085
I3440
tp376
a(I2026
I2086
I3440
tp377
a(I2025
I2087
I3440
tp378
a(I2024
I2088
I3440
tp379
a(I2023
I2089
I3440
tp380
a(I2022
I2090
I3440
tp381
a(I2021
I2091
I3440
tp382
a(I2020
I2092
I3440
tp383
a(I2019
I2093
I3440
tp384
a(I2018
I2094
I3440
tp385
a(I2017
I2095
I3440
tp386
a(I2016
I2096
I3440
tp387
a(I2015
I2097
I3440
tp388
a(I2014
I2098
I3440
tp389
a(I2013
I2099
I3440
tp390
a(I2012
I2100
I3440
tp391
a(I2011
I2101
I3440
tp392
a(I2010
I2102
I3440
tp393
a(I2009
I2103
I3440
tp394
a(I2008
I2104
I3440
tp395
a(I2007
I2105
I3440
tp396
a(I2006
I2106
I3440
tp397
a(I2005
I2107
I3440
tp398
a(I2004
I2108
I3440
tp399
a(I2003
I2109
I3440
tp400
a(I2002
I2110
I3440
tp401
a(I2001
I2111
I3440
tp402
a(I2000
I2112
I3440
tp403
a(I1999
I2113
I3440
tp404
a(I1998
I2114
I3440
tp405
a(I1997
I2115
I3440
tp406
a(I1996
I2116
I3440
tp407
a(I1995
I2117
I3440
tp408
a(I1994
I2118
I3440
tp409
a(I1993
I2119
I3440
tp410
a(I1992
I2120
I3440
tp411
a(I1991
I2121
I3440
tp412
a(I1990
I2122
I3440
tp413
a(I1989
I2123
I3440
tp414
a(I1988
I2124
I3440
tp415
a(I1987
I2125
I3440
tp416
a(I1986
I2126
I3440
tp417
a(I1985
I2127
I3440
tp418
a(I1984
I2128
I3440
tp419
a(I1983
I2129
I3440
tp420
a(I1982
I2130
I3440
tp421
a(I1981
I2131
I3440
tp422
a(I1980
I2132
I3440
tp423
a(I1979
I2133
I3440
tp424
a(I1978
I2134
I3440
tp425
a(I1977
I2135
I3440
tp426
a(I1976
I2136
I3440
tp427
a(I1975
I2137
I3440
tp428
a(I1974
I2138
I3440
tp429
a(I1973
I2139
I3440
tp430
a(I1972
I2140
I3440
tp431
a(I1971
I2141
I3440
tp432
a(I1970
I2142
I3440
tp433
a(I1969
I2143
I3440
tp434
a(I1968
I2144
I3440
tp435
a(I1967
I2145
I3440
tp436
a(I1966
I2146
I3440
tp437
a(I1965
I2147
I3440
tp438
a(I1964
I2148
I3440
tp439
a(I1963
I2149
I3440
tp440
a(I1962
I2150
I3440
tp441
a(I1961
I2151
I3440
tp442
a(I1960
I2152
I3440
tp443
a(I1959
I2153
I3440
tp444
a(I1958
I2154
I3440
tp445
a(I1957
I2155
I3440
tp446
a(I1956
I2156
I3440
tp447
a(I1955
I2157
I3440
tp448
a(I1954
I2158
I3440
tp449
a(I1953
I2159
I3440
tp450
a(I1952
I2160
I3440
tp451
a(I1951
I2161
I3440
tp452
a(I1950
I2162
I3440
tp453
a(I1949
I2163
I3440
tp454
a(I1948
I2164
I3440
tp455
a(I1947
I2165
I3440
tp456
a(I1946
I2166
I3440
tp457
a(I1945
I2167
I3440
tp458
a(I1944
I2168
I3440
tp459
a(I1943
I2169
I3440
tp460
a(I1942
I2170
I3440
tp461
a(I1941
I2171
I3440
tp462
a(I1940
I2172
I3440
tp463
a(I1939
I2173
I3440
tp464
a(I1938
I2174
I3440
tp465
a(I1937
I2175
I3440
tp466
a(I1936
I2176
I3440
tp467
a(I1935
I2177
I3440
tp468
a(I1934
I2178
I3440
tp469
a(I1933
I2179
I3440
tp470
a(I1932
I2180
I3440
tp471
a(I1931
I2181
I3440
tp472
a(I1930
I2182
I3440
tp473
a(I1929
I2183
I3440
tp474
a(I1928
I2184
I3440
tp475
a(I1927
I2185
I3440
tp476
a(I1926
I2186
I3440
tp477
a(I1925
I2187
I3440
tp478
a(I1924
I2188
I3440
tp479
a(I1923
I2189
I3440
tp480
a(I1922
I2190
I3440
tp481
a(I1921
I2191
I3440
tp482
a(I1920
I2192
I3440
tp483
a(I1919
I2193
I3440
tp484
a(I1918
I2194
I3440
tp485
a(I1917
I2195
I3440
tp486
a(I1916
I2196
I3440
tp487
a(I1915
I2197
I3440
tp488
a(I1914
I2198
I3440
tp489
a(I1913
I2199
I3440
tp490
a(I1912
I2200
I3440
tp491
a(I1911
I2201
I3440
tp492
a(I1910
I2202
I3440
tp493
a(I1909
I2203
I3440
tp494
a(I1908
I2204
I3440
tp495
a(I1907
I2205
I3440
tp496
a(I1906
I2206
I3440
tp497
a(I1905
I2207
I3440
tp498
a(I1904
I2208
I3440
tp499
a(I1903
I2209
I3440
tp500
a(I1902
I2210
I3440
tp501
a(I1901
I2211
I3440
tp502
a(I1900
I2212
I3440
tp503
a(I1899
I2213
I3440
tp504
a(I1898
I2214
I3440
tp505
a(I1897
I2215
I3440
tp506
a(I1896
I2216
I3440
tp507
a(I1895
I2217
I3440
tp508
a(I1894
I2218
I3440
tp509
a(I1893
I2219
I3440
tp510
a(I1892
I2220
I3440
tp511
a(I1891
I2221
I3440
tp512
a(I1890
I2222
I3440
tp513
a(I1889
I2223
I3440
tp514
a(I1888
I2224
I3440
tp515
a(I1887
I2225
I3440
tp516
a(I1886
I2226
I3440
tp517
a(I1885
I2227
I3440
tp518
a(I1884
I2228
I3440
tp519
a(I1883
I2229
I3440
tp520
a(I1882
I2230
I3440
tp521
a(I1881
I2231
I3440
tp522
a(I1880
I2232
I3440
tp523
a(I1879
I2233
I3440
tp524
a(I1878
I2234
I3440
tp525
a(I1877
I2235
I3440
tp526
a(I1876
I2236
I3440
tp527
a(I1875
I2237
I3440
tp528
a(I1874
I2238
I3440
tp529
a(I1873
I2239
I3440
tp530
a(I1872
I2240
I3440
tp531
a(I1871
I2241
I3440
tp532
a(I1870
I2242
I3440
tp533
a(I1869
I2243
I3440
tp534
a(I1868
I2244
I3440
tp535
a(I1867
I2245
I3440
tp536
a(I1866
I2246
I3440
tp537
a(I1865
I2247
I3440
tp538
a(I1864
I2248
I3440
tp539
a(I1863
I2249
I3440
tp540
a(I1862
I2250
I3440
tp541
a(I1861
I2251
I3440
tp542
a(I1860
I2252
I3440
tp543
a(I1859
I2253
I3440
tp544
a(I1858
I2254
I3440
tp545
a(I1857
I2255
I3440
tp546
a(I1856
I2256
I3440
tp547
a(I1855
I2257
I3440
tp548
a(I1854
I2258
I3440
tp549
a(I1853
I2259
I3440
tp550
a(I1852
I2260
I3440
tp551
a(I1851
I2261
I3440
tp552
a(I1850
I2262
I3440
tp553
a(I1849
I2263
I3440
tp554
a(I1848
I2264
I3440
tp555
a(I1847
I2265
I3440
tp556
a(I1846
I2266
I3440
tp557
a(I1845
I2267
I3440
tp558
a(I1844
I2268
I3440
tp559
a(I1843
I2269
I3440
tp560
a(I1842
I2270
I3440
tp561
a(I1841
I2271
I3440
tp562
a(I1840
I2272
I3440
tp563
a(I1839
I2273
I3440
tp564
a(I1838
I2274
I3440
tp565
a(I1837
I2275
I3440
tp566
a(I1836
I2276
I3440
tp567
a(I1835
I2277
I3440
tp568
a(I1834
I2278
I3440
tp569
a(I1833
I2279
I3440
tp570
a(I1832
I2280
I3440
tp571
a(I1831
I2281
I3440
tp572
a(I1830
I2282
I3440
tp573
a(I1829
I2283
I3440
tp574
a(I1828
I2284
I3440
tp575
a(I1827
I2285
I3440
tp576
a(I1826
I2286
I3440
tp577
a(I1825
I2287
I3440
tp578
a(I1824
I2288
I3440
tp579
a(I1823
I2289
I3440
tp580
a(I1822
I2290
I3440
tp581
a(I1821
I2291
I3440
tp582
a(I1820
I2292
I3440
tp583
a(I1819
I2293
I3440
tp584
a(I1818
I2294
I3440
tp585
a(I1817
I2295
I3440
tp586
a(I1816
I2296
I3440
tp587
a(I1815
I2297
I3440
tp588
a(I1814
I2298
I3440
tp589
a(I1813
I2299
I3440
tp590
a(I1812
I2300
I3440
tp591
a(I1811
I2301
I3440
tp592
a(I1810
I2302
I3440
tp593
a(I1809
I2303
I3440
tp594
a(I1808
I2304
I3440
tp595
a(I1807
I2305
I3440
tp596
a(I1806
I2306
I3440
tp597
a(I1805
I2307
I3440
tp598
a(I1804
I2308
I3440
tp599
a(I1803
I2309
I3440
tp600
a(I1802
I2310
I3440
tp601
a(I1801
I2311
I3440
tp602
a(I1800
I2312
I3440
tp603
a(I1799
I2313
I3440
tp604
a(I1798
I2314
I3440
tp605
a(I1797
I2315
I3440
tp606
a(I1796
I2316
I3440
tp607
a(I1795
I2317
I3440
tp608
a(I1794
I2318
I3440
tp609
a(I1793
I2319
I3440
tp610
a(I1792
I2320
I3440
tp611
a(I1791
I2321
I3440
tp612
a(I1790
I2322
I3440
tp613
a(I1789
I2323
I3440
tp614
a(I1788
I2324
I3440
tp615
a(I1787
I2325
I3440
tp616
a(I1786
I2326
I3440
tp617
a(I1785
I2327
I3440
tp618
a(I1784
I2328
I3440
tp619
a(I1783
I2329
I3440
tp620
a(I1782
I2330
I3440
tp621
a(I1781
I2331
I3440
tp622
a(I1780
I2332
I3440
tp623
a(I1779
I2333
I3440
tp624
a(I1778
I2334
I3440
tp625
a(I1777
I2335
I3440
tp626
a(I1776
I2336
I3440
tp627
a(I1775
I2337
I3440
tp628
a(I1774
I2338
I3440
tp629
a(I1773
I2339
I3440
tp630
a(I1772
I2340
I3440
tp631
a(I1771
I2341
I3440
tp632
a(I1770
I2342
I3440
tp633
a(I1769
I2343
I3440
tp634
a(I1768
I2344
I3440
tp635
a(I1767
I2345
I3440
tp636
a(I1766
I2346
I3440
tp637
a(I1765
I2347
I3440
tp638
a(I1764
I2348
I3440
tp639
a(I1763
I2349
I3440
tp640
a(I1762
I2350
I3440
tp641
a(I1761
I2351
I3440
tp642
a(I1760
I2352
I3440
tp643
a(I1759
I2353
I3440
tp644
a(I1758
I2354
I3440
tp645
a(I1757
I2355
I3440
tp646
a(I1756
I2356
I3440
tp647
a(I1755
I2357
I3440
tp648
a(I1754
I2358
I3440
tp649
a(I1753
I2359
I3440
tp650
a(I1752
I2360
I3440
tp651
a(I1751
I2361
I3440
tp652
a(I1750
I2362
I3440
tp653
a(I1749
I2363
I3440
tp654
a(I1748
I2364
I3440
tp655
a(I1747
I2365
I3440
tp656
a(I1746
I2366
I3440
tp657
a(I1745
I2367
I3440
tp658
a(I1744
I2368
I3440
tp659
a(I1743
I2369
I3440
tp660
a(I1742
I2370
I3440
tp661
a(I1741
I2371
I3440
tp662
a(I1740
I2372
I3440
tp663
a(I1739
I2373
I3440
tp664
a(I1738
I2374
I3440
tp665
a(I1737
I2375
I3440
tp666
a(I1736
I2376
I3440
tp667
a(I1735
I2377
I3440
tp668
a(I1734
I2378
I3440
tp669
a(I1733
I2379
I3440
tp670
a(I1732
I2380
I3440
tp671
a(I1731
I2381
I3440
tp672
a(I1730
I2382
I3440
tp673
a(I1729
I2383
I3440
tp674
a(I1728
I2384
I3440
tp675
a(I1727
I2385
I3440
tp676
a(I1726
I2386
I3440
tp677
a(I1725
I2387
I3440
tp678
a(I1724
I2388
I3440
tp679
a(I1723
I2389
I3440
tp680
a(I1722
I2390
I3440
tp681
a(I1721
I2391
I3440
tp682
a(I1720
I2392
I3440
tp683
a(I1719
I2393
I3440
tp684
a(I1718
I2394
I3440
tp685
a(I1717
I2395
I3440
tp686
a(I1716
I2396
I3440
tp687
a(I1715
I2397
I3440
tp688
a(I1714
I2398
I3440
tp689
a(I1713
I2399
I3440
tp690
a.