(lp1
(lp2
I1
aI673
aI2
aa(lp3
I1
aI673
aI3
aa(lp4
I2
aI674
aI4
aa(lp5
I2
aI674
aI5
aa(lp6
I3
aI675
aI6
aa(lp7
I3
aI675
aI7
aa(lp8
I4
aI676
aI8
aa(lp9
I4
aI676
aI9
aa(lp10
I5
aI677
aI10
aa(lp11
I5
aI677
aI11
aa(lp12
I6
aI678
aI12
aa(lp13
I6
aI678
aI13
aa(lp14
I7
aI679
aI14
aa(lp15
I7
aI679
aI15
aa(lp16
I8
aI680
aI16
aa(lp17
I8
aI680
aI17
aa(lp18
I9
aI681
aI18
aa(lp19
I9
aI681
aI19
aa(lp20
I10
aI682
aI20
aa(lp21
I10
aI682
aI21
aa(lp22
I11
aI683
aI22
aa(lp23
I11
aI683
aI23
aa(lp24
I12
aI684
aI24
aa(lp25
I12
aI684
aI25
aa(lp26
I13
aI685
aI26
aa(lp27
I13
aI685
aI27
aa(lp28
I14
aI686
aI28
aa(lp29
I14
aI686
aI29
aa(lp30
I15
aI687
aI30
aa(lp31
I15
aI687
aI31
aa(lp32
I16
aI688
aI32
aa(lp33
I16
aI688
aI33
aa(lp34
I17
aI689
aI34
aa(lp35
I17
aI689
aI35
aa(lp36
I18
aI690
aI36
aa(lp37
I18
aI690
aI37
aa(lp38
I19
aI691
aI38
aa(lp39
I19
aI691
aI39
aa(lp40
I20
aI692
aI40
aa(lp41
I20
aI692
aI41
aa(lp42
I21
aI693
aI42
aa(lp43
I21
aI693
aI43
aa(lp44
I22
aI694
aI44
aa(lp45
I22
aI694
aI45
aa(lp46
I23
aI695
aI46
aa(lp47
I23
aI695
aI47
aa(lp48
I24
aI696
aI48
aa(lp49
I24
aI696
aI49
aa(lp50
I25
aI697
aI50
aa(lp51
I25
aI697
aI51
aa(lp52
I26
aI698
aI52
aa(lp53
I26
aI698
aI53
aa(lp54
I27
aI699
aI54
aa(lp55
I27
aI699
aI55
aa(lp56
I28
aI700
aI56
aa(lp57
I28
aI700
aI57
aa(lp58
I29
aI701
aI58
aa(lp59
I29
aI701
aI59
aa(lp60
I30
aI702
aI60
aa(lp61
I30
aI702
aI61
aa(lp62
I31
aI703
aI62
aa(lp63
I31
aI703
aI63
aa(lp64
I32
aI704
aI64
aa(lp65
I32
aI704
aI65
aa(lp66
I33
aI705
aI66
aa(lp67
I33
aI705
aI67
aa(lp68
I34
aI706
aI68
aa(lp69
I34
aI706
aI69
aa(lp70
I35
aI707
aI70
aa(lp71
I35
aI707
aI71
aa(lp72
I36
aI708
aI72
aa(lp73
I36
aI708
aI73
aa(lp74
I37
aI709
aI74
aa(lp75
I37
aI709
aI75
aa(lp76
I38
aI710
aI76
aa(lp77
I38
aI710
aI77
aa(lp78
I39
aI711
aI78
aa(lp79
I39
aI711
aI79
aa(lp80
I40
aI712
aI80
aa(lp81
I40
aI712
aI81
aa(lp82
I41
aI713
aI82
aa(lp83
I41
aI713
aI83
aa(lp84
I42
aI714
aI84
aa(lp85
I42
aI714
aI85
aa(lp86
I43
aI715
aI86
aa(lp87
I43
aI715
aI87
aa(lp88
I44
aI716
aI88
aa(lp89
I44
aI716
aI89
aa(lp90
I45
aI717
aI90
aa(lp91
I45
aI717
aI91
aa(lp92
I46
aI718
aI92
aa(lp93
I46
aI718
aI93
aa(lp94
I47
aI719
aI94
aa(lp95
I47
aI719
aI95
aa(lp96
I48
aI720
aI96
aa(lp97
I48
aI720
aI97
aa(lp98
I49
aI721
aI98
aa(lp99
I49
aI721
aI99
aa(lp100
I50
aI722
aI100
aa(lp101
I50
aI722
aI101
aa(lp102
I51
aI723
aI102
aa(lp103
I51
aI723
aI103
aa(lp104
I52
aI724
aI104
aa(lp105
I52
aI724
aI105
aa(lp106
I53
aI725
aI106
aa(lp107
I53
aI725
aI107
aa(lp108
I54
aI726
aI108
aa(lp109
I54
aI726
aI109
aa(lp110
I55
aI727
aI110
aa(lp111
I55
aI727
aI111
aa(lp112
I56
aI728
aI112
aa(lp113
I56
aI728
aI113
aa(lp114
I57
aI729
aI114
aa(lp115
I57
aI729
aI115
aa(lp116
I58
aI730
aI116
aa(lp117
I58
aI730
aI117
aa(lp118
I59
aI731
aI118
aa(lp119
I59
aI731
aI119
aa(lp120
I60
aI732
aI120
aa(lp121
I60
aI732
aI121
aa(lp122
I61
aI733
aI122
aa(lp123
I61
aI733
aI123
aa(lp124
I62
aI734
aI124
aa(lp125
I62
aI734
aI125
aa(lp126
I63
aI735
aI126
aa(lp127
I63
aI735
aI127
aa(lp128
I64
aI736
aI128
aa(lp129
I64
aI736
aI129
aa(lp130
I65
aI737
aI130
aa(lp131
I65
aI737
aI131
aa(lp132
I66
aI738
aI132
aa(lp133
I66
aI738
aI133
aa(lp134
I67
aI739
aI134
aa(lp135
I67
aI739
aI135
aa(lp136
I68
aI740
aI136
aa(lp137
I68
aI740
aI137
aa(lp138
I69
aI741
aI138
aa(lp139
I69
aI741
aI139
aa(lp140
I70
aI742
aI140
aa(lp141
I70
aI742
aI141
aa(lp142
I71
aI743
aI142
aa(lp143
I71
aI743
aI143
aa(lp144
I72
aI744
aI144
aa(lp145
I72
aI744
aI145
aa(lp146
I73
aI745
aI146
aa(lp147
I73
aI745
aI147
aa(lp148
I74
aI746
aI148
aa(lp149
I74
aI746
aI149
aa(lp150
I75
aI747
aI150
aa(lp151
I75
aI747
aI151
aa(lp152
I76
aI748
aI152
aa(lp153
I76
aI748
aI153
aa(lp154
I77
aI749
aI154
aa(lp155
I77
aI749
aI155
aa(lp156
I78
aI750
aI156
aa(lp157
I78
aI750
aI157
aa(lp158
I79
aI751
aI158
aa(lp159
I79
aI751
aI159
aa(lp160
I80
aI752
aI160
aa(lp161
I80
aI752
aI161
aa(lp162
I81
aI753
aI162
aa(lp163
I81
aI753
aI163
aa(lp164
I82
aI754
aI164
aa(lp165
I82
aI754
aI165
aa(lp166
I83
aI755
aI166
aa(lp167
I83
aI755
aI167
aa(lp168
I84
aI756
aI168
aa(lp169
I84
aI756
aI169
aa(lp170
I85
aI757
aI170
aa(lp171
I85
aI757
aI171
aa(lp172
I86
aI758
aI172
aa(lp173
I86
aI758
aI173
aa(lp174
I87
aI759
aI174
aa(lp175
I87
aI759
aI175
aa(lp176
I88
aI760
aI176
aa(lp177
I88
aI760
aI177
aa(lp178
I89
aI761
aI178
aa(lp179
I89
aI761
aI179
aa(lp180
I90
aI762
aI180
aa(lp181
I90
aI762
aI181
aa(lp182
I91
aI763
aI182
aa(lp183
I91
aI763
aI183
aa(lp184
I92
aI764
aI184
aa(lp185
I92
aI764
aI185
aa(lp186
I93
aI765
aI186
aa(lp187
I93
aI765
aI187
aa(lp188
I94
aI766
aI188
aa(lp189
I94
aI766
aI189
aa(lp190
I95
aI767
aI190
aa(lp191
I95
aI767
aI191
aa(lp192
I96
aI768
aI192
aa(lp193
I96
aI768
aI193
aa(lp194
I97
aI769
aI194
aa(lp195
I97
aI769
aI195
aa(lp196
I98
aI770
aI196
aa(lp197
I98
aI770
aI197
aa(lp198
I99
aI771
aI198
aa(lp199
I99
aI771
aI199
aa(lp200
I100
aI772
aI200
aa(lp201
I100
aI772
aI201
aa(lp202
I101
aI773
aI202
aa(lp203
I101
aI773
aI203
aa(lp204
I102
aI774
aI204
aa(lp205
I102
aI774
aI205
aa(lp206
I103
aI775
aI206
aa(lp207
I103
aI775
aI207
aa(lp208
I104
aI776
aI208
aa(lp209
I104
aI776
aI209
aa(lp210
I105
aI777
aI210
aa(lp211
I105
aI777
aI211
aa(lp212
I106
aI778
aI212
aa(lp213
I106
aI778
aI213
aa(lp214
I107
aI779
aI214
aa(lp215
I107
aI779
aI215
aa(lp216
I108
aI780
aI216
aa(lp217
I108
aI780
aI217
aa(lp218
I109
aI781
aI218
aa(lp219
I109
aI781
aI219
aa(lp220
I110
aI782
aI220
aa(lp221
I110
aI782
aI221
aa(lp222
I111
aI783
aI222
aa(lp223
I111
aI783
aI223
aa(lp224
I112
aI784
aI224
aa(lp225
I112
aI784
aI225
aa(lp226
I113
aI785
aI226
aa(lp227
I113
aI785
aI227
aa(lp228
I114
aI786
aI228
aa(lp229
I114
aI786
aI229
aa(lp230
I115
aI787
aI230
aa(lp231
I115
aI787
aI231
aa(lp232
I116
aI788
aI232
aa(lp233
I116
aI788
aI233
aa(lp234
I117
aI789
aI234
aa(lp235
I117
aI789
aI235
aa(lp236
I118
aI790
aI236
aa(lp237
I118
aI790
aI237
aa(lp238
I119
aI791
aI238
aa(lp239
I119
aI791
aI239
aa(lp240
I120
aI792
aI240
aa(lp241
I120
aI792
aI241
aa(lp242
I121
aI793
aI242
aa(lp243
I121
aI793
aI243
aa(lp244
I122
aI794
aI244
aa(lp245
I122
aI794
aI245
aa(lp246
I123
aI795
aI246
aa(lp247
I123
aI795
aI247
aa(lp248
I124
aI796
aI248
aa(lp249
I124
aI796
aI249
aa(lp250
I125
aI797
aI250
aa(lp251
I125
aI797
aI251
aa(lp252
I126
aI798
aI252
aa(lp253
I126
aI798
aI253
aa(lp254
I127
aI799
aI254
aa(lp255
I127
aI799
aI255
aa(lp256
I128
aI800
aI256
aa(lp257
I128
aI800
aI257
aa(lp258
I129
aI801
aI258
aa(lp259
I129
aI801
aI259
aa(lp260
I130
aI802
aI260
aa(lp261
I130
aI802
aI261
aa(lp262
I131
aI803
aI262
aa(lp263
I131
aI803
aI263
aa(lp264
I132
aI804
aI264
aa(lp265
I132
aI804
aI265
aa(lp266
I133
aI805
aI266
aa(lp267
I133
aI805
aI267
aa(lp268
I134
aI806
aI268
aa(lp269
I134
aI806
aI269
aa(lp270
I135
aI807
aI270
aa(lp271
I135
aI807
aI271
aa(lp272
I136
aI808
aI272
aa(lp273
I136
aI808
aI273
aa(lp274
I137
aI809
aI274
aa(lp275
I137
aI809
aI275
aa(lp276
I138
aI810
aI276
aa(lp277
I138
aI810
aI277
aa(lp278
I139
aI811
aI278
aa(lp279
I139
aI811
aI279
aa(lp280
I140
aI812
aI280
aa(lp281
I140
aI812
aI281
aa(lp282
I141
aI813
aI282
aa(lp283
I141
aI813
aI283
aa(lp284
I142
aI814
aI284
aa(lp285
I142
aI814
aI285
aa(lp286
I143
aI815
aI286
aa(lp287
I143
aI815
aI287
aa(lp288
I144
aI816
aI288
aa(lp289
I144
aI816
aI289
aa(lp290
I145
aI817
aI290
aa(lp291
I145
aI817
aI291
aa(lp292
I146
aI818
aI292
aa(lp293
I146
aI818
aI293
aa(lp294
I147
aI819
aI294
aa(lp295
I147
aI819
aI295
aa(lp296
I148
aI820
aI296
aa(lp297
I148
aI820
aI297
aa(lp298
I149
aI821
aI298
aa(lp299
I149
aI821
aI299
aa(lp300
I150
aI822
aI300
aa(lp301
I150
aI822
aI301
aa(lp302
I151
aI823
aI302
aa(lp303
I151
aI823
aI303
aa(lp304
I152
aI824
aI304
aa(lp305
I152
aI824
aI305
aa(lp306
I153
aI825
aI306
aa(lp307
I153
aI825
aI307
aa(lp308
I154
aI826
aI308
aa(lp309
I154
aI826
aI309
aa(lp310
I155
aI827
aI310
aa(lp311
I155
aI827
aI311
aa(lp312
I156
aI828
aI312
aa(lp313
I156
aI828
aI313
aa(lp314
I157
aI829
aI314
aa(lp315
I157
aI829
aI315
aa(lp316
I158
aI830
aI316
aa(lp317
I158
aI830
aI317
aa(lp318
I159
aI831
aI318
aa(lp319
I159
aI831
aI319
aa(lp320
I160
aI832
aI320
aa(lp321
I160
aI832
aI321
aa(lp322
I161
aI833
aI322
aa(lp323
I161
aI833
aI323
aa(lp324
I162
aI834
aI324
aa(lp325
I162
aI834
aI325
aa(lp326
I163
aI835
aI326
aa(lp327
I163
aI835
aI327
aa(lp328
I164
aI836
aI328
aa(lp329
I164
aI836
aI329
aa(lp330
I165
aI837
aI330
aa(lp331
I165
aI837
aI331
aa(lp332
I166
aI838
aI332
aa(lp333
I166
aI838
aI333
aa(lp334
I167
aI839
aI334
aa(lp335
I167
aI839
aI335
aa(lp336
I168
aI840
aI336
aa(lp337
I168
aI840
aI337
aa(lp338
I169
aI841
aI338
aa(lp339
I169
aI841
aI339
aa(lp340
I170
aI842
aI340
aa(lp341
I170
aI842
aI341
aa(lp342
I171
aI843
aI342
aa(lp343
I171
aI843
aI343
aa(lp344
I172
aI844
aI344
aa(lp345
I172
aI844
aI345
aa(lp346
I173
aI845
aI346
aa(lp347
I173
aI845
aI347
aa(lp348
I174
aI846
aI348
aa(lp349
I174
aI846
aI349
aa(lp350
I175
aI847
aI350
aa(lp351
I175
aI847
aI351
aa(lp352
I176
aI848
aI352
aa(lp353
I176
aI848
aI353
aa(lp354
I177
aI849
aI354
aa(lp355
I177
aI849
aI355
aa(lp356
I178
aI850
aI356
aa(lp357
I178
aI850
aI357
aa(lp358
I179
aI851
aI358
aa(lp359
I179
aI851
aI359
aa(lp360
I180
aI852
aI360
aa(lp361
I180
aI852
aI361
aa(lp362
I181
aI853
aI362
aa(lp363
I181
aI853
aI363
aa(lp364
I182
aI854
aI364
aa(lp365
I182
aI854
aI365
aa(lp366
I183
aI855
aI366
aa(lp367
I183
aI855
aI367
aa(lp368
I184
aI856
aI368
aa(lp369
I184
aI856
aI369
aa(lp370
I185
aI857
aI370
aa(lp371
I185
aI857
aI371
aa(lp372
I186
aI858
aI372
aa(lp373
I186
aI858
aI373
aa(lp374
I187
aI859
aI374
aa(lp375
I187
aI859
aI375
aa(lp376
I188
aI860
aI376
aa(lp377
I188
aI860
aI377
aa(lp378
I189
aI861
aI378
aa(lp379
I189
aI861
aI379
aa(lp380
I190
aI862
aI380
aa(lp381
I190
aI862
aI381
aa(lp382
I191
aI863
aI382
aa(lp383
I191
aI863
aI383
aa(lp384
I192
aI864
aI384
aa(lp385
I192
aI864
aI385
aa(lp386
I193
aI865
aI386
aa(lp387
I193
aI865
aI387
aa(lp388
I194
aI866
aI388
aa(lp389
I194
aI866
aI389
aa(lp390
I195
aI867
aI390
aa(lp391
I195
aI867
aI391
aa(lp392
I196
aI868
aI392
aa(lp393
I196
aI868
aI393
aa(lp394
I197
aI869
aI394
aa(lp395
I197
aI869
aI395
aa(lp396
I198
aI870
aI396
aa(lp397
I198
aI870
aI397
aa(lp398
I199
aI871
aI398
aa(lp399
I199
aI871
aI399
aa(lp400
I200
aI872
aI400
aa(lp401
I200
aI872
aI401
aa(lp402
I201
aI873
aI402
aa(lp403
I201
aI873
aI403
aa(lp404
I202
aI874
aI404
aa(lp405
I202
aI874
aI405
aa(lp406
I203
aI875
aI406
aa(lp407
I203
aI875
aI407
aa(lp408
I204
aI876
aI408
aa(lp409
I204
aI876
aI409
aa(lp410
I205
aI877
aI410
aa(lp411
I205
aI877
aI411
aa(lp412
I206
aI878
aI412
aa(lp413
I206
aI878
aI413
aa(lp414
I207
aI879
aI414
aa(lp415
I207
aI879
aI415
aa(lp416
I208
aI880
aI416
aa(lp417
I208
aI880
aI417
aa(lp418
I209
aI881
aI418
aa(lp419
I209
aI881
aI419
aa(lp420
I210
aI882
aI420
aa(lp421
I210
aI882
aI421
aa(lp422
I211
aI883
aI422
aa(lp423
I211
aI883
aI423
aa(lp424
I212
aI884
aI424
aa(lp425
I212
aI884
aI425
aa(lp426
I213
aI885
aI426
aa(lp427
I213
aI885
aI427
aa(lp428
I214
aI886
aI428
aa(lp429
I214
aI886
aI429
aa(lp430
I215
aI887
aI430
aa(lp431
I215
aI887
aI431
aa(lp432
I216
aI888
aI432
aa(lp433
I216
aI888
aI433
aa(lp434
I217
aI889
aI434
aa(lp435
I217
aI889
aI435
aa(lp436
I218
aI890
aI436
aa(lp437
I218
aI890
aI437
aa(lp438
I219
aI891
aI438
aa(lp439
I219
aI891
aI439
aa(lp440
I220
aI892
aI440
aa(lp441
I220
aI892
aI441
aa(lp442
I221
aI893
aI442
aa(lp443
I221
aI893
aI443
aa(lp444
I222
aI894
aI444
aa(lp445
I222
aI894
aI445
aa(lp446
I223
aI895
aI446
aa(lp447
I223
aI895
aI447
aa(lp448
I224
aI896
aI448
aa(lp449
I224
aI896
aI449
aa(lp450
I225
aI897
aI450
aa(lp451
I225
aI897
aI451
aa(lp452
I226
aI898
aI452
aa(lp453
I226
aI898
aI453
aa(lp454
I227
aI899
aI454
aa(lp455
I227
aI899
aI455
aa(lp456
I228
aI900
aI456
aa(lp457
I228
aI900
aI457
aa(lp458
I229
aI901
aI458
aa(lp459
I229
aI901
aI459
aa(lp460
I230
aI902
aI460
aa(lp461
I230
aI902
aI461
aa(lp462
I231
aI903
aI462
aa(lp463
I231
aI903
aI463
aa(lp464
I232
aI904
aI464
aa(lp465
I232
aI904
aI465
aa(lp466
I233
aI905
aI466
aa(lp467
I233
aI905
aI467
aa(lp468
I234
aI906
aI468
aa(lp469
I234
aI906
aI469
aa(lp470
I235
aI907
aI470
aa(lp471
I235
aI907
aI471
aa(lp472
I236
aI908
aI472
aa(lp473
I236
aI908
aI473
aa(lp474
I237
aI909
aI474
aa(lp475
I237
aI909
aI475
aa(lp476
I238
aI910
aI476
aa(lp477
I238
aI910
aI477
aa(lp478
I239
aI911
aI478
aa(lp479
I239
aI911
aI479
aa(lp480
I240
aI912
aI480
aa(lp481
I240
aI912
aI481
aa(lp482
I241
aI913
aI482
aa(lp483
I241
aI913
aI483
aa(lp484
I242
aI914
aI484
aa(lp485
I242
aI914
aI485
aa(lp486
I243
aI915
aI486
aa(lp487
I243
aI915
aI487
aa(lp488
I244
aI916
aI488
aa(lp489
I244
aI916
aI489
aa(lp490
I245
aI917
aI490
aa(lp491
I245
aI917
aI491
aa(lp492
I246
aI918
aI492
aa(lp493
I246
aI918
aI493
aa(lp494
I247
aI919
aI494
aa(lp495
I247
aI919
aI495
aa(lp496
I248
aI920
aI496
aa(lp497
I248
aI920
aI497
aa(lp498
I249
aI921
aI498
aa(lp499
I249
aI921
aI499
aa(lp500
I250
aI922
aI500
aa(lp501
I250
aI922
aI501
aa(lp502
I251
aI923
aI502
aa(lp503
I251
aI923
aI503
aa(lp504
I252
aI924
aI504
aa(lp505
I252
aI924
aI505
aa(lp506
I253
aI925
aI506
aa(lp507
I253
aI925
aI507
aa(lp508
I254
aI926
aI508
aa(lp509
I254
aI926
aI509
aa(lp510
I255
aI927
aI510
aa(lp511
I255
aI927
aI511
aa(lp512
I256
aI928
aI512
aa(lp513
I256
aI928
aI513
aa(lp514
I257
aI929
aI514
aa(lp515
I257
aI929
aI515
aa(lp516
I258
aI930
aI516
aa(lp517
I258
aI930
aI517
aa(lp518
I259
aI931
aI518
aa(lp519
I259
aI931
aI519
aa(lp520
I260
aI932
aI520
aa(lp521
I260
aI932
aI521
aa(lp522
I261
aI933
aI522
aa(lp523
I261
aI933
aI523
aa(lp524
I262
aI934
aI524
aa(lp525
I262
aI934
aI525
aa(lp526
I263
aI935
aI526
aa(lp527
I263
aI935
aI527
aa(lp528
I264
aI936
aI528
aa(lp529
I264
aI936
aI529
aa(lp530
I265
aI937
aI530
aa(lp531
I265
aI937
aI531
aa(lp532
I266
aI938
aI532
aa(lp533
I266
aI938
aI533
aa(lp534
I267
aI939
aI534
aa(lp535
I267
aI939
aI535
aa(lp536
I268
aI940
aI536
aa(lp537
I268
aI940
aI537
aa(lp538
I269
aI941
aI538
aa(lp539
I269
aI941
aI539
aa(lp540
I270
aI942
aI540
aa(lp541
I270
aI942
aI541
aa(lp542
I271
aI943
aI542
aa(lp543
I271
aI943
aI543
aa(lp544
I272
aI944
aI544
aa(lp545
I272
aI944
aI545
aa(lp546
I273
aI945
aI546
aa(lp547
I273
aI945
aI547
aa(lp548
I274
aI946
aI548
aa(lp549
I274
aI946
aI549
aa(lp550
I275
aI947
aI550
aa(lp551
I275
aI947
aI551
aa(lp552
I276
aI948
aI552
aa(lp553
I276
aI948
aI553
aa(lp554
I277
aI949
aI554
aa(lp555
I277
aI949
aI555
aa(lp556
I278
aI950
aI556
aa(lp557
I278
aI950
aI557
aa(lp558
I279
aI951
aI558
aa(lp559
I279
aI951
aI559
aa(lp560
I280
aI952
aI560
aa(lp561
I280
aI952
aI561
aa(lp562
I281
aI953
aI562
aa(lp563
I281
aI953
aI563
aa(lp564
I282
aI954
aI564
aa(lp565
I282
aI954
aI565
aa(lp566
I283
aI955
aI566
aa(lp567
I283
aI955
aI567
aa(lp568
I284
aI956
aI568
aa(lp569
I284
aI956
aI569
aa(lp570
I285
aI957
aI570
aa(lp571
I285
aI957
aI571
aa(lp572
I286
aI958
aI572
aa(lp573
I286
aI958
aI573
aa(lp574
I287
aI959
aI574
aa(lp575
I287
aI959
aI575
aa(lp576
I288
aI960
aI576
aa(lp577
I288
aI960
aI577
aa(lp578
I289
aI961
aI578
aa(lp579
I289
aI961
aI579
aa(lp580
I290
aI962
aI580
aa(lp581
I290
aI962
aI581
aa(lp582
I291
aI963
aI582
aa(lp583
I291
aI963
aI583
aa(lp584
I292
aI964
aI584
aa(lp585
I292
aI964
aI585
aa(lp586
I293
aI965
aI586
aa(lp587
I293
aI965
aI587
aa(lp588
I294
aI966
aI588
aa(lp589
I294
aI966
aI589
aa(lp590
I295
aI967
aI590
aa(lp591
I295
aI967
aI591
aa(lp592
I296
aI968
aI592
aa(lp593
I296
aI968
aI593
aa(lp594
I297
aI969
aI594
aa(lp595
I297
aI969
aI595
aa(lp596
I298
aI970
aI596
aa(lp597
I298
aI970
aI597
aa(lp598
I299
aI971
aI598
aa(lp599
I299
aI971
aI599
aa(lp600
I300
aI972
aI600
aa(lp601
I300
aI972
aI601
aa(lp602
I301
aI973
aI602
aa(lp603
I301
aI973
aI603
aa(lp604
I302
aI974
aI604
aa(lp605
I302
aI974
aI605
aa(lp606
I303
aI975
aI606
aa(lp607
I303
aI975
aI607
aa(lp608
I304
aI976
aI608
aa(lp609
I304
aI976
aI609
aa(lp610
I305
aI977
aI610
aa(lp611
I305
aI977
aI611
aa(lp612
I306
aI978
aI612
aa(lp613
I306
aI978
aI613
aa(lp614
I307
aI979
aI614
aa(lp615
I307
aI979
aI615
aa(lp616
I308
aI980
aI616
aa(lp617
I308
aI980
aI617
aa(lp618
I309
aI981
aI618
aa(lp619
I309
aI981
aI619
aa(lp620
I310
aI982
aI620
aa(lp621
I310
aI982
aI621
aa(lp622
I311
aI983
aI622
aa(lp623
I311
aI983
aI623
aa(lp624
I312
aI984
aI624
aa(lp625
I312
aI984
aI625
aa(lp626
I313
aI985
aI626
aa(lp627
I313
aI985
aI627
aa(lp628
I314
aI986
aI628
aa(lp629
I314
aI986
aI629
aa(lp630
I315
aI987
aI630
aa(lp631
I315
aI987
aI631
aa(lp632
I316
aI988
aI632
aa(lp633
I316
aI988
aI633
aa(lp634
I317
aI989
aI634
aa(lp635
I317
aI989
aI635
aa(lp636
I318
aI990
aI636
aa(lp637
I318
aI990
aI637
aa(lp638
I319
aI991
aI638
aa(lp639
I319
aI991
aI639
aa(lp640
I320
aI992
aI640
aa(lp641
I320
aI992
aI641
aa(lp642
I321
aI993
aI642
aa(lp643
I321
aI993
aI643
aa(lp644
I322
aI994
aI644
aa(lp645
I322
aI994
aI645
aa(lp646
I323
aI995
aI646
aa(lp647
I323
aI995
aI647
aa(lp648
I324
aI996
aI648
aa(lp649
I324
aI996
aI649
aa(lp650
I325
aI997
aI650
aa(lp651
I325
aI997
aI651
aa(lp652
I326
aI998
aI652
aa(lp653
I326
aI998
aI653
aa(lp654
I327
aI999
aI654
aa(lp655
I327
aI999
aI655
aa(lp656
I328
aI1000
aI656
aa(lp657
I328
aI1000
aI657
aa(lp658
I329
aI1001
aI658
aa(lp659
I329
aI1001
aI659
aa(lp660
I330
aI1002
aI660
aa(lp661
I330
aI1002
aI661
aa(lp662
I331
aI1003
aI662
aa(lp663
I331
aI1003
aI663
aa(lp664
I332
aI1004
aI664
aa(lp665
I332
aI1004
aI665
aa(lp666
I333
aI1005
aI666
aa(lp667
I333
aI1005
aI667
aa(lp668
I334
aI1006
aI668
aa(lp669
I334
aI1006
aI669
aa(lp670
I335
aI1007
aI670
aa(lp671
I335
aI1007
aI671
aa(lp672
I336
aI1008
aI672
aa(lp673
I336
aI1008
aI673
aa(lp674
I337
aI1009
aI674
aa(lp675
I337
aI1009
aI675
aa(lp676
I338
aI1010
aI676
aa(lp677
I338
aI1010
aI677
aa(lp678
I339
aI1011
aI678
aa(lp679
I339
aI1011
aI679
aa(lp680
I340
aI1012
aI680
aa(lp681
I340
aI1012
aI681
aa(lp682
I341
aI1013
aI682
aa(lp683
I341
aI1013
aI683
aa(lp684
I342
aI1014
aI684
aa(lp685
I342
aI1014
aI685
aa(lp686
I343
aI1015
aI686
aa(lp687
I343
aI1015
aI687
aa(lp688
I344
aI1016
aI688
aa(lp689
I344
aI1016
aI689
aa(lp690
I345
aI1017
aI690
aa(lp691
I345
aI1017
aI691
aa(lp692
I346
aI1018
aI692
aa(lp693
I346
aI1018
aI693
aa(lp694
I347
aI1019
aI694
aa(lp695
I347
aI1019
aI695
aa(lp696
I348
aI1020
aI696
aa(lp697
I348
aI1020
aI697
aa(lp698
I349
aI1021
aI698
aa(lp699
I349
aI1021
aI699
aa(lp700
I350
aI1022
aI700
aa(lp701
I350
aI1022
aI701
aa(lp702
I351
aI1023
aI702
aa(lp703
I351
aI1023
aI703
aa(lp704
I352
aI1024
aI704
aa(lp705
I352
aI1024
aI705
aa(lp706
I353
aI1025
aI706
aa(lp707
I353
aI1025
aI707
aa(lp708
I354
aI1026
aI708
aa(lp709
I354
aI1026
aI709
aa(lp710
I355
aI1027
aI710
aa(lp711
I355
aI1027
aI711
aa(lp712
I356
aI1028
aI712
aa(lp713
I356
aI1028
aI713
aa(lp714
I357
aI1029
aI714
aa(lp715
I357
aI1029
aI715
aa(lp716
I358
aI1030
aI716
aa(lp717
I358
aI1030
aI717
aa(lp718
I359
aI1031
aI718
aa(lp719
I359
aI1031
aI719
aa(lp720
I360
aI1032
aI720
aa(lp721
I360
aI1032
aI721
aa(lp722
I361
aI1033
aI722
aa(lp723
I361
aI1033
aI723
aa(lp724
I362
aI1034
aI724
aa(lp725
I362
aI1034
aI725
aa(lp726
I363
aI1035
aI726
aa(lp727
I363
aI1035
aI727
aa(lp728
I364
aI1036
aI728
aa(lp729
I364
aI1036
aI729
aa(lp730
I365
aI1037
aI730
aa(lp731
I365
aI1037
aI731
aa(lp732
I366
aI1038
aI732
aa(lp733
I366
aI1038
aI733
aa(lp734
I367
aI1039
aI734
aa(lp735
I367
aI1039
aI735
aa(lp736
I368
aI1040
aI736
aa(lp737
I368
aI1040
aI737
aa(lp738
I369
aI1041
aI738
aa(lp739
I369
aI1041
aI739
aa(lp740
I370
aI1042
aI740
aa(lp741
I370
aI1042
aI741
aa(lp742
I371
aI1043
aI742
aa(lp743
I371
aI1043
aI743
aa(lp744
I372
aI1044
aI744
aa(lp745
I372
aI1044
aI745
aa(lp746
I373
aI1045
aI746
aa(lp747
I373
aI1045
aI747
aa(lp748
I374
aI1046
aI748
aa(lp749
I374
aI1046
aI749
aa(lp750
I375
aI1047
aI750
aa(lp751
I375
aI1047
aI751
aa(lp752
I376
aI1048
aI752
aa(lp753
I376
aI1048
aI753
aa(lp754
I377
aI1049
aI754
aa(lp755
I377
aI1049
aI755
aa(lp756
I378
aI1050
aI756
aa(lp757
I378
aI1050
aI757
aa(lp758
I379
aI1051
aI758
aa(lp759
I379
aI1051
aI759
aa(lp760
I380
aI1052
aI760
aa(lp761
I380
aI1052
aI761
aa(lp762
I381
aI1053
aI762
aa(lp763
I381
aI1053
aI763
aa(lp764
I382
aI1054
aI764
aa(lp765
I382
aI1054
aI765
aa(lp766
I383
aI1055
aI766
aa(lp767
I383
aI1055
aI767
aa(lp768
I384
aI1056
aI768
aa(lp769
I384
aI1056
aI769
aa(lp770
I385
aI1057
aI770
aa(lp771
I385
aI1057
aI771
aa(lp772
I386
aI1058
aI772
aa(lp773
I386
aI1058
aI773
aa(lp774
I387
aI1059
aI774
aa(lp775
I387
aI1059
aI775
aa(lp776
I388
aI1060
aI776
aa(lp777
I388
aI1060
aI777
aa(lp778
I389
aI1061
aI778
aa(lp779
I389
aI1061
aI779
aa(lp780
I390
aI1062
aI780
aa(lp781
I390
aI1062
aI781
aa(lp782
I391
aI1063
aI782
aa(lp783
I391
aI1063
aI783
aa(lp784
I392
aI1064
aI784
aa(lp785
I392
aI1064
aI785
aa(lp786
I393
aI1065
aI786
aa(lp787
I393
aI1065
aI787
aa(lp788
I394
aI1066
aI788
aa(lp789
I394
aI1066
aI789
aa(lp790
I395
aI1067
aI790
aa(lp791
I395
aI1067
aI791
aa(lp792
I396
aI1068
aI792
aa(lp793
I396
aI1068
aI793
aa(lp794
I397
aI1069
aI794
aa(lp795
I397
aI1069
aI795
aa(lp796
I398
aI1070
aI796
aa(lp797
I398
aI1070
aI797
aa(lp798
I399
aI1071
aI798
aa(lp799
I399
aI1071
aI799
aa(lp800
I400
aI1072
aI800
aa(lp801
I400
aI1072
aI801
aa(lp802
I401
aI1073
aI802
aa(lp803
I401
aI1073
aI803
aa(lp804
I402
aI1074
aI804
aa(lp805
I402
aI1074
aI805
aa(lp806
I403
aI1075
aI806
aa(lp807
I403
aI1075
aI807
aa(lp808
I404
aI1076
aI808
aa(lp809
I404
aI1076
aI809
aa(lp810
I405
aI1077
aI810
aa(lp811
I405
aI1077
aI811
aa(lp812
I406
aI1078
aI812
aa(lp813
I406
aI1078
aI813
aa(lp814
I407
aI1079
aI814
aa(lp815
I407
aI1079
aI815
aa(lp816
I408
aI1080
aI816
aa(lp817
I408
aI1080
aI817
aa(lp818
I409
aI1081
aI818
aa(lp819
I409
aI1081
aI819
aa(lp820
I410
aI1082
aI820
aa(lp821
I410
aI1082
aI821
aa(lp822
I411
aI1083
aI822
aa(lp823
I411
aI1083
aI823
aa(lp824
I412
aI1084
aI824
aa(lp825
I412
aI1084
aI825
aa(lp826
I413
aI1085
aI826
aa(lp827
I413
aI1085
aI827
aa(lp828
I414
aI1086
aI828
aa(lp829
I414
aI1086
aI829
aa(lp830
I415
aI1087
aI830
aa(lp831
I415
aI1087
aI831
aa(lp832
I416
aI1088
aI832
aa(lp833
I416
aI1088
aI833
aa(lp834
I417
aI1089
aI834
aa(lp835
I417
aI1089
aI835
aa(lp836
I418
aI1090
aI836
aa(lp837
I418
aI1090
aI837
aa(lp838
I419
aI1091
aI838
aa(lp839
I419
aI1091
aI839
aa(lp840
I420
aI1092
aI840
aa(lp841
I420
aI1092
aI841
aa(lp842
I421
aI1093
aI842
aa(lp843
I421
aI1093
aI843
aa(lp844
I422
aI1094
aI844
aa(lp845
I422
aI1094
aI845
aa(lp846
I423
aI1095
aI846
aa(lp847
I423
aI1095
aI847
aa(lp848
I424
aI1096
aI848
aa(lp849
I424
aI1096
aI849
aa(lp850
I425
aI1097
aI850
aa(lp851
I425
aI1097
aI851
aa(lp852
I426
aI1098
aI852
aa(lp853
I426
aI1098
aI853
aa(lp854
I427
aI1099
aI854
aa(lp855
I427
aI1099
aI855
aa(lp856
I428
aI1100
aI856
aa(lp857
I428
aI1100
aI857
aa(lp858
I429
aI1101
aI858
aa(lp859
I429
aI1101
aI859
aa(lp860
I430
aI1102
aI860
aa(lp861
I430
aI1102
aI861
aa(lp862
I431
aI1103
aI862
aa(lp863
I431
aI1103
aI863
aa(lp864
I432
aI1104
aI864
aa(lp865
I432
aI1104
aI865
aa(lp866
I433
aI1105
aI866
aa(lp867
I433
aI1105
aI867
aa(lp868
I434
aI1106
aI868
aa(lp869
I434
aI1106
aI869
aa(lp870
I435
aI1107
aI870
aa(lp871
I435
aI1107
aI871
aa(lp872
I436
aI1108
aI872
aa(lp873
I436
aI1108
aI873
aa(lp874
I437
aI1109
aI874
aa(lp875
I437
aI1109
aI875
aa(lp876
I438
aI1110
aI876
aa(lp877
I438
aI1110
aI877
aa(lp878
I439
aI1111
aI878
aa(lp879
I439
aI1111
aI879
aa(lp880
I440
aI1112
aI880
aa(lp881
I440
aI1112
aI881
aa(lp882
I441
aI1113
aI882
aa(lp883
I441
aI1113
aI883
aa(lp884
I442
aI1114
aI884
aa(lp885
I442
aI1114
aI885
aa(lp886
I443
aI1115
aI886
aa(lp887
I443
aI1115
aI887
aa(lp888
I444
aI1116
aI888
aa(lp889
I444
aI1116
aI889
aa(lp890
I445
aI1117
aI890
aa(lp891
I445
aI1117
aI891
aa(lp892
I446
aI1118
aI892
aa(lp893
I446
aI1118
aI893
aa(lp894
I447
aI1119
aI894
aa(lp895
I447
aI1119
aI895
aa(lp896
I448
aI1120
aI896
aa(lp897
I448
aI1120
aI897
aa(lp898
I449
aI1121
aI898
aa(lp899
I449
aI1121
aI899
aa(lp900
I450
aI1122
aI900
aa(lp901
I450
aI1122
aI901
aa(lp902
I451
aI1123
aI902
aa(lp903
I451
aI1123
aI903
aa(lp904
I452
aI1124
aI904
aa(lp905
I452
aI1124
aI905
aa(lp906
I453
aI1125
aI906
aa(lp907
I453
aI1125
aI907
aa(lp908
I454
aI1126
aI908
aa(lp909
I454
aI1126
aI909
aa(lp910
I455
aI1127
aI910
aa(lp911
I455
aI1127
aI911
aa(lp912
I456
aI1128
aI912
aa(lp913
I456
aI1128
aI913
aa(lp914
I457
aI1129
aI914
aa(lp915
I457
aI1129
aI915
aa(lp916
I458
aI1130
aI916
aa(lp917
I458
aI1130
aI917
aa(lp918
I459
aI1131
aI918
aa(lp919
I459
aI1131
aI919
aa(lp920
I460
aI1132
aI920
aa(lp921
I460
aI1132
aI921
aa(lp922
I461
aI1133
aI922
aa(lp923
I461
aI1133
aI923
aa(lp924
I462
aI1134
aI924
aa(lp925
I462
aI1134
aI925
aa(lp926
I463
aI1135
aI926
aa(lp927
I463
aI1135
aI927
aa(lp928
I464
aI1136
aI928
aa(lp929
I464
aI1136
aI929
aa(lp930
I465
aI1137
aI930
aa(lp931
I465
aI1137
aI931
aa(lp932
I466
aI1138
aI932
aa(lp933
I466
aI1138
aI933
aa(lp934
I467
aI1139
aI934
aa(lp935
I467
aI1139
aI935
aa(lp936
I468
aI1140
aI936
aa(lp937
I468
aI1140
aI937
aa(lp938
I469
aI1141
aI938
aa(lp939
I469
aI1141
aI939
aa(lp940
I470
aI1142
aI940
aa(lp941
I470
aI1142
aI941
aa(lp942
I471
aI1143
aI942
aa(lp943
I471
aI1143
aI943
aa(lp944
I472
aI1144
aI944
aa(lp945
I472
aI1144
aI945
aa(lp946
I473
aI1145
aI946
aa(lp947
I473
aI1145
aI947
aa(lp948
I474
aI1146
aI948
aa(lp949
I474
aI1146
aI949
aa(lp950
I475
aI1147
aI950
aa(lp951
I475
aI1147
aI951
aa(lp952
I476
aI1148
aI952
aa(lp953
I476
aI1148
aI953
aa(lp954
I477
aI1149
aI954
aa(lp955
I477
aI1149
aI955
aa(lp956
I478
aI1150
aI956
aa(lp957
I478
aI1150
aI957
aa(lp958
I479
aI1151
aI958
aa(lp959
I479
aI1151
aI959
aa(lp960
I480
aI1152
aI960
aa(lp961
I480
aI1152
aI961
aa(lp962
I481
aI1153
aI962
aa(lp963
I481
aI1153
aI963
aa(lp964
I482
aI1154
aI964
aa(lp965
I482
aI1154
aI965
aa(lp966
I483
aI1155
aI966
aa(lp967
I483
aI1155
aI967
aa(lp968
I484
aI1156
aI968
aa(lp969
I484
aI1156
aI969
aa(lp970
I485
aI1157
aI970
aa(lp971
I485
aI1157
aI971
aa(lp972
I486
aI1158
aI972
aa(lp973
I486
aI1158
aI973
aa(lp974
I487
aI1159
aI974
aa(lp975
I487
aI1159
aI975
aa(lp976
I488
aI1160
aI976
aa(lp977
I488
aI1160
aI977
aa(lp978
I489
aI1161
aI978
aa(lp979
I489
aI1161
aI979
aa(lp980
I490
aI1162
aI980
aa(lp981
I490
aI1162
aI981
aa(lp982
I491
aI1163
aI982
aa(lp983
I491
aI1163
aI983
aa(lp984
I492
aI1164
aI984
aa(lp985
I492
aI1164
aI985
aa(lp986
I493
aI1165
aI986
aa(lp987
I493
aI1165
aI987
aa(lp988
I494
aI1166
aI988
aa(lp989
I494
aI1166
aI989
aa(lp990
I495
aI1167
aI990
aa(lp991
I495
aI1167
aI991
aa(lp992
I496
aI1168
aI992
aa(lp993
I496
aI1168
aI993
aa(lp994
I497
aI1169
aI994
aa(lp995
I497
aI1169
aI995
aa(lp996
I498
aI1170
aI996
aa(lp997
I498
aI1170
aI997
aa(lp998
I499
aI1171
aI998
aa(lp999
I499
aI1171
aI999
aa(lp1000
I500
aI1172
aI1000
aa(lp1001
I500
aI1172
aI1001
aa(lp1002
I501
aI1173
aI1002
aa(lp1003
I501
aI1173
aI1003
aa(lp1004
I502
aI1174
aI1004
aa(lp1005
I502
aI1174
aI1005
aa(lp1006
I503
aI1175
aI1006
aa(lp1007
I503
aI1175
aI1007
aa(lp1008
I504
aI1176
aI1008
aa(lp1009
I504
aI1176
aI1009
aa(lp1010
I505
aI1177
aI1010
aa(lp1011
I505
aI1177
aI1011
aa(lp1012
I506
aI1178
aI1012
aa(lp1013
I506
aI1178
aI1013
aa(lp1014
I507
aI1179
aI1014
aa(lp1015
I507
aI1179
aI1015
aa(lp1016
I508
aI1180
aI1016
aa(lp1017
I508
aI1180
aI1017
aa(lp1018
I509
aI1181
aI1018
aa(lp1019
I509
aI1181
aI1019
aa(lp1020
I510
aI1182
aI1020
aa(lp1021
I510
aI1182
aI1021
aa(lp1022
I511
aI1183
aI1022
aa(lp1023
I511
aI1183
aI1023
aa(lp1024
I512
aI1184
aI1024
aa(lp1025
I512
aI1184
aI1025
aa(lp1026
I513
aI1185
aI1026
aa(lp1027
I513
aI1185
aI1027
aa(lp1028
I514
aI1186
aI1028
aa(lp1029
I514
aI1186
aI1029
aa(lp1030
I515
aI1187
aI1030
aa(lp1031
I515
aI1187
aI1031
aa(lp1032
I516
aI1188
aI1032
aa(lp1033
I516
aI1188
aI1033
aa(lp1034
I517
aI1189
aI1034
aa(lp1035
I517
aI1189
aI1035
aa(lp1036
I518
aI1190
aI1036
aa(lp1037
I518
aI1190
aI1037
aa(lp1038
I519
aI1191
aI1038
aa(lp1039
I519
aI1191
aI1039
aa(lp1040
I520
aI1192
aI1040
aa(lp1041
I520
aI1192
aI1041
aa(lp1042
I521
aI1193
aI1042
aa(lp1043
I521
aI1193
aI1043
aa(lp1044
I522
aI1194
aI1044
aa(lp1045
I522
aI1194
aI1045
aa(lp1046
I523
aI1195
aI1046
aa(lp1047
I523
aI1195
aI1047
aa(lp1048
I524
aI1196
aI1048
aa(lp1049
I524
aI1196
aI1049
aa(lp1050
I525
aI1197
aI1050
aa(lp1051
I525
aI1197
aI1051
aa(lp1052
I526
aI1198
aI1052
aa(lp1053
I526
aI1198
aI1053
aa(lp1054
I527
aI1199
aI1054
aa(lp1055
I527
aI1199
aI1055
aa(lp1056
I528
aI1200
aI1056
aa(lp1057
I528
aI1200
aI1057
aa(lp1058
I529
aI1201
aI1058
aa(lp1059
I529
aI1201
aI1059
aa(lp1060
I530
aI1202
aI1060
aa(lp1061
I530
aI1202
aI1061
aa(lp1062
I531
aI1203
aI1062
aa(lp1063
I531
aI1203
aI1063
aa(lp1064
I532
aI1204
aI1064
aa(lp1065
I532
aI1204
aI1065
aa(lp1066
I533
aI1205
aI1066
aa(lp1067
I533
aI1205
aI1067
aa(lp1068
I534
aI1206
aI1068
aa(lp1069
I534
aI1206
aI1069
aa(lp1070
I535
aI1207
aI1070
aa(lp1071
I535
aI1207
aI1071
aa(lp1072
I536
aI1208
aI1072
aa(lp1073
I536
aI1208
aI1073
aa(lp1074
I537
aI1209
aI1074
aa(lp1075
I537
aI1209
aI1075
aa(lp1076
I538
aI1210
aI1076
aa(lp1077
I538
aI1210
aI1077
aa(lp1078
I539
aI1211
aI1078
aa(lp1079
I539
aI1211
aI1079
aa(lp1080
I540
aI1212
aI1080
aa(lp1081
I540
aI1212
aI1081
aa(lp1082
I541
aI1213
aI1082
aa(lp1083
I541
aI1213
aI1083
aa(lp1084
I542
aI1214
aI1084
aa(lp1085
I542
aI1214
aI1085
aa(lp1086
I543
aI1215
aI1086
aa(lp1087
I543
aI1215
aI1087
aa(lp1088
I544
aI1216
aI1088
aa(lp1089
I544
aI1216
aI1089
aa(lp1090
I545
aI1217
aI1090
aa(lp1091
I545
aI1217
aI1091
aa(lp1092
I546
aI1218
aI1092
aa(lp1093
I546
aI1218
aI1093
aa(lp1094
I547
aI1219
aI1094
aa(lp1095
I547
aI1219
aI1095
aa(lp1096
I548
aI1220
aI1096
aa(lp1097
I548
aI1220
aI1097
aa(lp1098
I549
aI1221
aI1098
aa(lp1099
I549
aI1221
aI1099
aa(lp1100
I550
aI1222
aI1100
aa(lp1101
I550
aI1222
aI1101
aa(lp1102
I551
aI1223
aI1102
aa(lp1103
I551
aI1223
aI1103
aa(lp1104
I552
aI1224
aI1104
aa(lp1105
I552
aI1224
aI1105
aa(lp1106
I553
aI1225
aI1106
aa(lp1107
I553
aI1225
aI1107
aa(lp1108
I554
aI1226
aI1108
aa(lp1109
I554
aI1226
aI1109
aa(lp1110
I555
aI1227
aI1110
aa(lp1111
I555
aI1227
aI1111
aa(lp1112
I556
aI1228
aI1112
aa(lp1113
I556
aI1228
aI1113
aa(lp1114
I557
aI1229
aI1114
aa(lp1115
I557
aI1229
aI1115
aa(lp1116
I558
aI1230
aI1116
aa(lp1117
I558
aI1230
aI1117
aa(lp1118
I559
aI1231
aI1118
aa(lp1119
I559
aI1231
aI1119
aa(lp1120
I560
aI1232
aI1120
aa(lp1121
I560
aI1232
aI1121
aa(lp1122
I561
aI1233
aI1122
aa(lp1123
I561
aI1233
aI1123
aa(lp1124
I562
aI1234
aI1124
aa(lp1125
I562
aI1234
aI1125
aa(lp1126
I563
aI1235
aI1126
aa(lp1127
I563
aI1235
aI1127
aa(lp1128
I564
aI1236
aI1128
aa(lp1129
I564
aI1236
aI1129
aa(lp1130
I565
aI1237
aI1130
aa(lp1131
I565
aI1237
aI1131
aa(lp1132
I566
aI1238
aI1132
aa(lp1133
I566
aI1238
aI1133
aa(lp1134
I567
aI1239
aI1134
aa(lp1135
I567
aI1239
aI1135
aa(lp1136
I568
aI1240
aI1136
aa(lp1137
I568
aI1240
aI1137
aa(lp1138
I569
aI1241
aI1138
aa(lp1139
I569
aI1241
aI1139
aa(lp1140
I570
aI1242
aI1140
aa(lp1141
I570
aI1242
aI1141
aa(lp1142
I571
aI1243
aI1142
aa(lp1143
I571
aI1243
aI1143
aa(lp1144
I572
aI1244
aI1144
aa(lp1145
I572
aI1244
aI1145
aa(lp1146
I573
aI1245
aI1146
aa(lp1147
I573
aI1245
aI1147
aa(lp1148
I574
aI1246
aI1148
aa(lp1149
I574
aI1246
aI1149
aa(lp1150
I575
aI1247
aI1150
aa(lp1151
I575
aI1247
aI1151
aa(lp1152
I576
aI1248
aI1152
aa(lp1153
I576
aI1248
aI1153
aa(lp1154
I577
aI1249
aI1154
aa(lp1155
I577
aI1249
aI1155
aa(lp1156
I578
aI1250
aI1156
aa(lp1157
I578
aI1250
aI1157
aa(lp1158
I579
aI1251
aI1158
aa(lp1159
I579
aI1251
aI1159
aa(lp1160
I580
aI1252
aI1160
aa(lp1161
I580
aI1252
aI1161
aa(lp1162
I581
aI1253
aI1162
aa(lp1163
I581
aI1253
aI1163
aa(lp1164
I582
aI1254
aI1164
aa(lp1165
I582
aI1254
aI1165
aa(lp1166
I583
aI1255
aI1166
aa(lp1167
I583
aI1255
aI1167
aa(lp1168
I584
aI1256
aI1168
aa(lp1169
I584
aI1256
aI1169
aa(lp1170
I585
aI1257
aI1170
aa(lp1171
I585
aI1257
aI1171
aa(lp1172
I586
aI1258
aI1172
aa(lp1173
I586
aI1258
aI1173
aa(lp1174
I587
aI1259
aI1174
aa(lp1175
I587
aI1259
aI1175
aa(lp1176
I588
aI1260
aI1176
aa(lp1177
I588
aI1260
aI1177
aa(lp1178
I589
aI1261
aI1178
aa(lp1179
I589
aI1261
aI1179
aa(lp1180
I590
aI1262
aI1180
aa(lp1181
I590
aI1262
aI1181
aa(lp1182
I591
aI1263
aI1182
aa(lp1183
I591
aI1263
aI1183
aa(lp1184
I592
aI1264
aI1184
aa(lp1185
I592
aI1264
aI1185
aa(lp1186
I593
aI1265
aI1186
aa(lp1187
I593
aI1265
aI1187
aa(lp1188
I594
aI1266
aI1188
aa(lp1189
I594
aI1266
aI1189
aa(lp1190
I595
aI1267
aI1190
aa(lp1191
I595
aI1267
aI1191
aa(lp1192
I596
aI1268
aI1192
aa(lp1193
I596
aI1268
aI1193
aa(lp1194
I597
aI1269
aI1194
aa(lp1195
I597
aI1269
aI1195
aa(lp1196
I598
aI1270
aI1196
aa(lp1197
I598
aI1270
aI1197
aa(lp1198
I599
aI1271
aI1198
aa(lp1199
I599
aI1271
aI1199
aa(lp1200
I600
aI1272
aI1200
aa(lp1201
I600
aI1272
aI1201
aa(lp1202
I601
aI1273
aI1202
aa(lp1203
I601
aI1273
aI1203
aa(lp1204
I602
aI1274
aI1204
aa(lp1205
I602
aI1274
aI1205
aa(lp1206
I603
aI1275
aI1206
aa(lp1207
I603
aI1275
aI1207
aa(lp1208
I604
aI1276
aI1208
aa(lp1209
I604
aI1276
aI1209
aa(lp1210
I605
aI1277
aI1210
aa(lp1211
I605
aI1277
aI1211
aa(lp1212
I606
aI1278
aI1212
aa(lp1213
I606
aI1278
aI1213
aa(lp1214
I607
aI1279
aI1214
aa(lp1215
I607
aI1279
aI1215
aa(lp1216
I608
aI1280
aI1216
aa(lp1217
I608
aI1280
aI1217
aa(lp1218
I609
aI1281
aI1218
aa(lp1219
I609
aI1281
aI1219
aa(lp1220
I610
aI1282
aI1220
aa(lp1221
I610
aI1282
aI1221
aa(lp1222
I611
aI1283
aI1222
aa(lp1223
I611
aI1283
aI1223
aa(lp1224
I612
aI1284
aI1224
aa(lp1225
I612
aI1284
aI1225
aa(lp1226
I613
aI1285
aI1226
aa(lp1227
I613
aI1285
aI1227
aa(lp1228
I614
aI1286
aI1228
aa(lp1229
I614
aI1286
aI1229
aa(lp1230
I615
aI1287
aI1230
aa(lp1231
I615
aI1287
aI1231
aa(lp1232
I616
aI1288
aI1232
aa(lp1233
I616
aI1288
aI1233
aa(lp1234
I617
aI1289
aI1234
aa(lp1235
I617
aI1289
aI1235
aa(lp1236
I618
aI1290
aI1236
aa(lp1237
I618
aI1290
aI1237
aa(lp1238
I619
aI1291
aI1238
aa(lp1239
I619
aI1291
aI1239
aa(lp1240
I620
aI1292
aI1240
aa(lp1241
I620
aI1292
aI1241
aa(lp1242
I621
aI1293
aI1242
aa(lp1243
I621
aI1293
aI1243
aa(lp1244
I622
aI1294
aI1244
aa(lp1245
I622
aI1294
aI1245
aa(lp1246
I623
aI1295
aI1246
aa(lp1247
I623
aI1295
aI1247
aa(lp1248
I624
aI1296
aI1248
aa(lp1249
I624
aI1296
aI1249
aa(lp1250
I625
aI1297
aI1250
aa(lp1251
I625
aI1297
aI1251
aa(lp1252
I626
aI1298
aI1252
aa(lp1253
I626
aI1298
aI1253
aa(lp1254
I627
aI1299
aI1254
aa(lp1255
I627
aI1299
aI1255
aa(lp1256
I628
aI1300
aI1256
aa(lp1257
I628
aI1300
aI1257
aa(lp1258
I629
aI1301
aI1258
aa(lp1259
I629
aI1301
aI1259
aa(lp1260
I630
aI1302
aI1260
aa(lp1261
I630
aI1302
aI1261
aa(lp1262
I631
aI1303
aI1262
aa(lp1263
I631
aI1303
aI1263
aa(lp1264
I632
aI1304
aI1264
aa(lp1265
I632
aI1304
aI1265
aa(lp1266
I633
aI1305
aI1266
aa(lp1267
I633
aI1305
aI1267
aa(lp1268
I634
aI1306
aI1268
aa(lp1269
I634
aI1306
aI1269
aa(lp1270
I635
aI1307
aI1270
aa(lp1271
I635
aI1307
aI1271
aa(lp1272
I636
aI1308
aI1272
aa(lp1273
I636
aI1308
aI1273
aa(lp1274
I637
aI1309
aI1274
aa(lp1275
I637
aI1309
aI1275
aa(lp1276
I638
aI1310
aI1276
aa(lp1277
I638
aI1310
aI1277
aa(lp1278
I639
aI1311
aI1278
aa(lp1279
I639
aI1311
aI1279
aa(lp1280
I640
aI1312
aI1280
aa(lp1281
I640
aI1312
aI1281
aa(lp1282
I641
aI1313
aI1282
aa(lp1283
I641
aI1313
aI1283
aa(lp1284
I642
aI1314
aI1284
aa(lp1285
I642
aI1314
aI1285
aa(lp1286
I643
aI1315
aI1286
aa(lp1287
I643
aI1315
aI1287
aa(lp1288
I644
aI1316
aI1288
aa(lp1289
I644
aI1316
aI1289
aa(lp1290
I645
aI1317
aI1290
aa(lp1291
I645
aI1317
aI1291
aa(lp1292
I646
aI1318
aI1292
aa(lp1293
I646
aI1318
aI1293
aa(lp1294
I647
aI1319
aI1294
aa(lp1295
I647
aI1319
aI1295
aa(lp1296
I648
aI1320
aI1296
aa(lp1297
I648
aI1320
aI1297
aa(lp1298
I649
aI1321
aI1298
aa(lp1299
I649
aI1321
aI1299
aa(lp1300
I650
aI1322
aI1300
aa(lp1301
I650
aI1322
aI1301
aa(lp1302
I651
aI1323
aI1302
aa(lp1303
I651
aI1323
aI1303
aa(lp1304
I652
aI1324
aI1304
aa(lp1305
I652
aI1324
aI1305
aa(lp1306
I653
aI1325
aI1306
aa(lp1307
I653
aI1325
aI1307
aa(lp1308
I654
aI1326
aI1308
aa(lp1309
I654
aI1326
aI1309
aa(lp1310
I655
aI1327
aI1310
aa(lp1311
I655
aI1327
aI1311
aa(lp1312
I656
aI1328
aI1312
aa(lp1313
I656
aI1328
aI1313
aa(lp1314
I657
aI1329
aI1314
aa(lp1315
I657
aI1329
aI1315
aa(lp1316
I658
aI1330
aI1316
aa(lp1317
I658
aI1330
aI1317
aa(lp1318
I659
aI1331
aI1318
aa(lp1319
I659
aI1331
aI1319
aa(lp1320
I660
aI1332
aI1320
aa(lp1321
I660
aI1332
aI1321
aa(lp1322
I661
aI1333
aI1322
aa(lp1323
I661
aI1333
aI1323
aa(lp1324
I662
aI1334
aI1324
aa(lp1325
I662
aI1334
aI1325
aa(lp1326
I663
aI1335
aI1326
aa(lp1327
I663
aI1335
aI1327
aa(lp1328
I664
aI1336
aI1328
aa(lp1329
I664
aI1336
aI1329
aa(lp1330
I665
aI1337
aI1330
aa(lp1331
I665
aI1337
aI1331
aa(lp1332
I666
aI1338
aI1332
aa(lp1333
I666
aI1338
aI1333
aa(lp1334
I667
aI1339
aI1334
aa(lp1335
I667
aI1339
aI1335
aa(lp1336
I668
aI1340
aI1336
aa(lp1337
I668
aI1340
aI1337
aa(lp1338
I669
aI1341
aI1338
aa(lp1339
I669
aI1341
aI1339
aa(lp1340
I670
aI1342
aI1340
aa(lp1341
I670
aI1342
aI1341
aa(lp1342
I671
aI1343
aI1342
aa(lp1343
I671
aI1343
aI1343
aa(lp1344
I672
aI1344
aI1344
aa(lp1345
I672
aI1344
aI1345
aa(lp1346
I673
aI1345
aI1346
aa(lp1347
I673
aI1345
aI1347
aa(lp1348
I674
aI1346
aI1348
aa(lp1349
I674
aI1346
aI1349
aa(lp1350
I675
aI1347
aI1350
aa(lp1351
I675
aI1347
aI1351
aa(lp1352
I676
aI1348
aI1352
aa(lp1353
I676
aI1348
aI1353
aa(lp1354
I677
aI1349
aI1354
aa(lp1355
I677
aI1349
aI1355
aa(lp1356
I678
aI1350
aI1356
aa(lp1357
I678
aI1350
aI1357
aa(lp1358
I679
aI1351
aI1358
aa(lp1359
I679
aI1351
aI1359
aa(lp1360
I680
aI1352
aI1360
aa(lp1361
I680
aI1352
aI1361
aa(lp1362
I681
aI1353
aI1362
aa(lp1363
I681
aI1353
aI1363
aa(lp1364
I682
aI1354
aI1364
aa(lp1365
I682
aI1354
aI1365
aa(lp1366
I683
aI1355
aI1366
aa(lp1367
I683
aI1355
aI1367
aa(lp1368
I684
aI1356
aI1368
aa(lp1369
I684
aI1356
aI1369
aa(lp1370
I685
aI1357
aI1370
aa(lp1371
I685
aI1357
aI1371
aa(lp1372
I686
aI1358
aI1372
aa(lp1373
I686
aI1358
aI1373
aa(lp1374
I687
aI1359
aI1374
aa(lp1375
I687
aI1359
aI1375
aa(lp1376
I688
aI1360
aI1376
aa(lp1377
I688
aI1360
aI1377
aa(lp1378
I689
aI1361
aI1378
aa(lp1379
I689
aI1361
aI1379
aa(lp1380
I690
aI1362
aI1380
aa(lp1381
I690
aI1362
aI1381
aa(lp1382
I691
aI1363
aI1382
aa(lp1383
I691
aI1363
aI1383
aa(lp1384
I692
aI1364
aI1384
aa(lp1385
I692
aI1364
aI1385
aa(lp1386
I693
aI1365
aI1386
aa(lp1387
I693
aI1365
aI1387
aa(lp1388
I694
aI1366
aI1388
aa(lp1389
I694
aI1366
aI1389
aa(lp1390
I695
aI1367
aI1390
aa(lp1391
I695
aI1367
aI1391
aa(lp1392
I696
aI1368
aI1392
aa(lp1393
I696
aI1368
aI1393
aa(lp1394
I697
aI1369
aI1394
aa(lp1395
I697
aI1369
aI1395
aa(lp1396
I698
aI1370
aI1396
aa(lp1397
I698
aI1370
aI1397
aa(lp1398
I699
aI1371
aI1398
aa(lp1399
I699
aI1371
aI1399
aa(lp1400
I700
aI1372
aI1400
aa(lp1401
I700
aI1372
aI1401
aa(lp1402
I701
aI1373
aI1402
aa(lp1403
I701
aI1373
aI1403
aa(lp1404
I702
aI1374
aI1404
aa(lp1405
I702
aI1374
aI1405
aa(lp1406
I703
aI1375
aI1406
aa(lp1407
I703
aI1375
aI1407
aa(lp1408
I704
aI1376
aI1408
aa(lp1409
I704
aI1376
aI1409
aa(lp1410
I705
aI1377
aI1410
aa(lp1411
I705
aI1377
aI1411
aa(lp1412
I706
aI1378
aI1412
aa(lp1413
I706
aI1378
aI1413
aa(lp1414
I707
aI1379
aI1414
aa(lp1415
I707
aI1379
aI1415
aa(lp1416
I708
aI1380
aI1416
aa(lp1417
I708
aI1380
aI1417
aa(lp1418
I709
aI1381
aI1418
aa(lp1419
I709
aI1381
aI1419
aa(lp1420
I710
aI1382
aI1420
aa(lp1421
I710
aI1382
aI1421
aa(lp1422
I711
aI1383
aI1422
aa(lp1423
I711
aI1383
aI1423
aa(lp1424
I712
aI1384
aI1424
aa(lp1425
I712
aI1384
aI1425
aa(lp1426
I713
aI1385
aI1426
aa(lp1427
I713
aI1385
aI1427
aa(lp1428
I714
aI1386
aI1428
aa(lp1429
I714
aI1386
aI1429
aa(lp1430
I715
aI1387
aI1430
aa(lp1431
I715
aI1387
aI1431
aa(lp1432
I716
aI1388
aI1432
aa(lp1433
I716
aI1388
aI1433
aa(lp1434
I717
aI1389
aI1434
aa(lp1435
I717
aI1389
aI1435
aa(lp1436
I718
aI1390
aI1436
aa(lp1437
I718
aI1390
aI1437
aa(lp1438
I719
aI1391
aI1438
aa(lp1439
I719
aI1391
aI1439
aa(lp1440
I720
aI1392
aI1440
aa(lp1441
I720
aI1392
aI1441
aa(lp1442
I721
aI1393
aI1442
aa(lp1443
I721
aI1393
aI1443
aa(lp1444
I722
aI1394
aI1444
aa(lp1445
I722
aI1394
aI1445
aa(lp1446
I723
aI1395
aI1446
aa(lp1447
I723
aI1395
aI1447
aa(lp1448
I724
aI1396
aI1448
aa(lp1449
I724
aI1396
aI1449
aa(lp1450
I725
aI1397
aI1450
aa(lp1451
I725
aI1397
aI1451
aa(lp1452
I726
aI1398
aI1452
aa(lp1453
I726
aI1398
aI1453
aa(lp1454
I727
aI1399
aI1454
aa(lp1455
I727
aI1399
aI1455
aa(lp1456
I728
aI1400
aI1456
aa(lp1457
I728
aI1400
aI1457
aa(lp1458
I729
aI1401
aI1458
aa(lp1459
I729
aI1401
aI1459
aa(lp1460
I730
aI1402
aI1460
aa(lp1461
I730
aI1402
aI1461
aa(lp1462
I731
aI1403
aI1462
aa(lp1463
I731
aI1403
aI1463
aa(lp1464
I732
aI1404
aI1464
aa(lp1465
I732
aI1404
aI1465
aa(lp1466
I733
aI1405
aI1466
aa(lp1467
I733
aI1405
aI1467
aa(lp1468
I734
aI1406
aI1468
aa(lp1469
I734
aI1406
aI1469
aa(lp1470
I735
aI1407
aI1470
aa(lp1471
I735
aI1407
aI1471
aa(lp1472
I736
aI1408
aI1472
aa(lp1473
I736
aI1408
aI1473
aa(lp1474
I737
aI1409
aI1474
aa(lp1475
I737
aI1409
aI1475
aa(lp1476
I738
aI1410
aI1476
aa(lp1477
I738
aI1410
aI1477
aa(lp1478
I739
aI1411
aI1478
aa(lp1479
I739
aI1411
aI1479
aa(lp1480
I740
aI1412
aI1480
aa(lp1481
I740
aI1412
aI1481
aa(lp1482
I741
aI1413
aI1482
aa(lp1483
I741
aI1413
aI1483
aa(lp1484
I742
aI1414
aI1484
aa(lp1485
I742
aI1414
aI1485
aa(lp1486
I743
aI1415
aI1486
aa(lp1487
I743
aI1415
aI1487
aa(lp1488
I744
aI1416
aI1488
aa(lp1489
I744
aI1416
aI1489
aa(lp1490
I745
aI1417
aI1490
aa(lp1491
I745
aI1417
aI1491
aa(lp1492
I746
aI1418
aI1492
aa(lp1493
I746
aI1418
aI1493
aa(lp1494
I747
aI1419
aI1494
aa(lp1495
I747
aI1419
aI1495
aa(lp1496
I748
aI1420
aI1496
aa(lp1497
I748
aI1420
aI1497
aa(lp1498
I749
aI1421
aI1498
aa(lp1499
I749
aI1421
aI1499
aa(lp1500
I750
aI1422
aI1500
aa(lp1501
I750
aI1422
aI1501
aa(lp1502
I751
aI1423
aI1502
aa(lp1503
I751
aI1423
aI1503
aa(lp1504
I752
aI1424
aI1504
aa(lp1505
I752
aI1424
aI1505
aa(lp1506
I753
aI1425
aI1506
aa(lp1507
I753
aI1425
aI1507
aa(lp1508
I754
aI1426
aI1508
aa(lp1509
I754
aI1426
aI1509
aa(lp1510
I755
aI1427
aI1510
aa(lp1511
I755
aI1427
aI1511
aa(lp1512
I756
aI1428
aI1512
aa(lp1513
I756
aI1428
aI1513
aa(lp1514
I757
aI1429
aI1514
aa(lp1515
I757
aI1429
aI1515
aa(lp1516
I758
aI1430
aI1516
aa(lp1517
I758
aI1430
aI1517
aa(lp1518
I759
aI1431
aI1518
aa(lp1519
I759
aI1431
aI1519
aa(lp1520
I760
aI1432
aI1520
aa(lp1521
I760
aI1432
aI1521
aa(lp1522
I761
aI1433
aI1522
aa(lp1523
I761
aI1433
aI1523
aa(lp1524
I762
aI1434
aI1524
aa(lp1525
I762
aI1434
aI1525
aa(lp1526
I763
aI1435
aI1526
aa(lp1527
I763
aI1435
aI1527
aa(lp1528
I764
aI1436
aI1528
aa(lp1529
I764
aI1436
aI1529
aa(lp1530
I765
aI1437
aI1530
aa(lp1531
I765
aI1437
aI1531
aa(lp1532
I766
aI1438
aI1532
aa(lp1533
I766
aI1438
aI1533
aa(lp1534
I767
aI1439
aI1534
aa(lp1535
I767
aI1439
aI1535
aa(lp1536
I768
aI1440
aI1536
aa(lp1537
I768
aI1440
aI1537
aa(lp1538
I769
aI1441
aI1538
aa(lp1539
I769
aI1441
aI1539
aa(lp1540
I770
aI1442
aI1540
aa(lp1541
I770
aI1442
aI1541
aa(lp1542
I771
aI1443
aI1542
aa(lp1543
I771
aI1443
aI1543
aa(lp1544
I772
aI1444
aI1544
aa(lp1545
I772
aI1444
aI1545
aa(lp1546
I773
aI1445
aI1546
aa(lp1547
I773
aI1445
aI1547
aa(lp1548
I774
aI1446
aI1548
aa(lp1549
I774
aI1446
aI1549
aa(lp1550
I775
aI1447
aI1550
aa(lp1551
I775
aI1447
aI1551
aa(lp1552
I776
aI1448
aI1552
aa(lp1553
I776
aI1448
aI1553
aa(lp1554
I777
aI1449
aI1554
aa(lp1555
I777
aI1449
aI1555
aa(lp1556
I778
aI1450
aI1556
aa(lp1557
I778
aI1450
aI1557
aa(lp1558
I779
aI1451
aI1558
aa(lp1559
I779
aI1451
aI1559
aa(lp1560
I780
aI1452
aI1560
aa(lp1561
I780
aI1452
aI1561
aa(lp1562
I781
aI1453
aI1562
aa(lp1563
I781
aI1453
aI1563
aa(lp1564
I782
aI1454
aI1564
aa(lp1565
I782
aI1454
aI1565
aa(lp1566
I783
aI1455
aI1566
aa(lp1567
I783
aI1455
aI1567
aa(lp1568
I784
aI1456
aI1568
aa(lp1569
I784
aI1456
aI1569
aa(lp1570
I785
aI1457
aI1570
aa(lp1571
I785
aI1457
aI1571
aa(lp1572
I786
aI1458
aI1572
aa(lp1573
I786
aI1458
aI1573
aa(lp1574
I787
aI1459
aI1574
aa(lp1575
I787
aI1459
aI1575
aa(lp1576
I788
aI1460
aI1576
aa(lp1577
I788
aI1460
aI1577
aa(lp1578
I789
aI1461
aI1578
aa(lp1579
I789
aI1461
aI1579
aa(lp1580
I790
aI1462
aI1580
aa(lp1581
I790
aI1462
aI1581
aa(lp1582
I791
aI1463
aI1582
aa(lp1583
I791
aI1463
aI1583
aa(lp1584
I792
aI1464
aI1584
aa(lp1585
I792
aI1464
aI1585
aa(lp1586
I793
aI1465
aI1586
aa(lp1587
I793
aI1465
aI1587
aa(lp1588
I794
aI1466
aI1588
aa(lp1589
I794
aI1466
aI1589
aa(lp1590
I795
aI1467
aI1590
aa(lp1591
I795
aI1467
aI1591
aa(lp1592
I796
aI1468
aI1592
aa(lp1593
I796
aI1468
aI1593
aa(lp1594
I797
aI1469
aI1594
aa(lp1595
I797
aI1469
aI1595
aa(lp1596
I798
aI1470
aI1596
aa(lp1597
I798
aI1470
aI1597
aa(lp1598
I799
aI1471
aI1598
aa(lp1599
I799
aI1471
aI1599
aa(lp1600
I800
aI1472
aI1600
aa(lp1601
I800
aI1472
aI1601
aa(lp1602
I801
aI1473
aI1602
aa(lp1603
I801
aI1473
aI1603
aa(lp1604
I802
aI1474
aI1604
aa(lp1605
I802
aI1474
aI1605
aa(lp1606
I803
aI1475
aI1606
aa(lp1607
I803
aI1475
aI1607
aa(lp1608
I804
aI1476
aI1608
aa(lp1609
I804
aI1476
aI1609
aa(lp1610
I805
aI1477
aI1610
aa(lp1611
I805
aI1477
aI1611
aa(lp1612
I806
aI1478
aI1612
aa(lp1613
I806
aI1478
aI1613
aa(lp1614
I807
aI1479
aI1614
aa(lp1615
I807
aI1479
aI1615
aa(lp1616
I808
aI1480
aI1616
aa(lp1617
I808
aI1480
aI1617
aa(lp1618
I809
aI1481
aI1618
aa(lp1619
I809
aI1481
aI1619
aa(lp1620
I810
aI1482
aI1620
aa(lp1621
I810
aI1482
aI1621
aa(lp1622
I811
aI1483
aI1622
aa(lp1623
I811
aI1483
aI1623
aa(lp1624
I812
aI1484
aI1624
aa(lp1625
I812
aI1484
aI1625
aa(lp1626
I813
aI1485
aI1626
aa(lp1627
I813
aI1485
aI1627
aa(lp1628
I814
aI1486
aI1628
aa(lp1629
I814
aI1486
aI1629
aa(lp1630
I815
aI1487
aI1630
aa(lp1631
I815
aI1487
aI1631
aa(lp1632
I816
aI1488
aI1632
aa(lp1633
I816
aI1488
aI1633
aa(lp1634
I817
aI1489
aI1634
aa(lp1635
I817
aI1489
aI1635
aa(lp1636
I818
aI1490
aI1636
aa(lp1637
I818
aI1490
aI1637
aa(lp1638
I819
aI1491
aI1638
aa(lp1639
I819
aI1491
aI1639
aa(lp1640
I820
aI1492
aI1640
aa(lp1641
I820
aI1492
aI1641
aa(lp1642
I821
aI1493
aI1642
aa(lp1643
I821
aI1493
aI1643
aa(lp1644
I822
aI1494
aI1644
aa(lp1645
I822
aI1494
aI1645
aa(lp1646
I823
aI1495
aI1646
aa(lp1647
I823
aI1495
aI1647
aa(lp1648
I824
aI1496
aI1648
aa(lp1649
I824
aI1496
aI1649
aa(lp1650
I825
aI1497
aI1650
aa(lp1651
I825
aI1497
aI1651
aa(lp1652
I826
aI1498
aI1652
aa(lp1653
I826
aI1498
aI1653
aa(lp1654
I827
aI1499
aI1654
aa(lp1655
I827
aI1499
aI1655
aa(lp1656
I828
aI1500
aI1656
aa(lp1657
I828
aI1500
aI1657
aa(lp1658
I829
aI1501
aI1658
aa(lp1659
I829
aI1501
aI1659
aa(lp1660
I830
aI1502
aI1660
aa(lp1661
I830
aI1502
aI1661
aa(lp1662
I831
aI1503
aI1662
aa(lp1663
I831
aI1503
aI1663
aa(lp1664
I832
aI1504
aI1664
aa(lp1665
I832
aI1504
aI1665
aa(lp1666
I833
aI1505
aI1666
aa(lp1667
I833
aI1505
aI1667
aa(lp1668
I834
aI1506
aI1668
aa(lp1669
I834
aI1506
aI1669
aa(lp1670
I835
aI1507
aI1670
aa(lp1671
I835
aI1507
aI1671
aa(lp1672
I836
aI1508
aI1672
aa(lp1673
I836
aI1508
aI1673
aa(lp1674
I837
aI1509
aI1674
aa(lp1675
I837
aI1509
aI1675
aa(lp1676
I838
aI1510
aI1676
aa(lp1677
I838
aI1510
aI1677
aa(lp1678
I839
aI1511
aI1678
aa(lp1679
I839
aI1511
aI1679
aa(lp1680
I840
aI1512
aI1680
aa(lp1681
I840
aI1512
aI1681
aa(lp1682
I841
aI1513
aI1682
aa(lp1683
I841
aI1513
aI1683
aa(lp1684
I842
aI1514
aI1684
aa(lp1685
I842
aI1514
aI1685
aa(lp1686
I843
aI1515
aI1686
aa(lp1687
I843
aI1515
aI1687
aa(lp1688
I844
aI1516
aI1688
aa(lp1689
I844
aI1516
aI1689
aa(lp1690
I845
aI1517
aI1690
aa(lp1691
I845
aI1517
aI1691
aa(lp1692
I846
aI1518
aI1692
aa(lp1693
I846
aI1518
aI1693
aa(lp1694
I847
aI1519
aI1694
aa(lp1695
I847
aI1519
aI1695
aa(lp1696
I848
aI1520
aI1696
aa(lp1697
I848
aI1520
aI1697
aa(lp1698
I849
aI1521
aI1698
aa(lp1699
I849
aI1521
aI1699
aa(lp1700
I850
aI1522
aI1700
aa(lp1701
I850
aI1522
aI1701
aa(lp1702
I851
aI1523
aI1702
aa(lp1703
I851
aI1523
aI1703
aa(lp1704
I852
aI1524
aI1704
aa(lp1705
I852
aI1524
aI1705
aa(lp1706
I853
aI1525
aI1706
aa(lp1707
I853
aI1525
aI1707
aa(lp1708
I854
aI1526
aI1708
aa(lp1709
I854
aI1526
aI1709
aa(lp1710
I855
aI1527
aI1710
aa(lp1711
I855
aI1527
aI1711
aa(lp1712
I856
aI1528
aI1712
aa(lp1713
I856
aI1528
aI1713
aa(lp1714
I857
aI1529
aI1714
aa(lp1715
I857
aI1529
aI1715
aa(lp1716
I858
aI1530
aI1716
aa(lp1717
I858
aI1530
aI1717
aa(lp1718
I859
aI1531
aI1718
aa(lp1719
I859
aI1531
aI1719
aa(lp1720
I860
aI1532
aI1720
aa(lp1721
I860
aI1532
aI1721
aa(lp1722
I861
aI1533
aI1722
aa(lp1723
I861
aI1533
aI1723
aa(lp1724
I862
aI1534
aI1724
aa(lp1725
I862
aI1534
aI1725
aa(lp1726
I863
aI1535
aI1726
aa(lp1727
I863
aI1535
aI1727
aa(lp1728
I864
aI1536
aI1728
aa(lp1729
I864
aI1536
aI1729
aa(lp1730
I865
aI1537
aI1730
aa(lp1731
I865
aI1537
aI1731
aa(lp1732
I866
aI1538
aI1732
aa(lp1733
I866
aI1538
aI1733
aa(lp1734
I867
aI1539
aI1734
aa(lp1735
I867
aI1539
aI1735
aa(lp1736
I868
aI1540
aI1736
aa(lp1737
I868
aI1540
aI1737
aa(lp1738
I869
aI1541
aI1738
aa(lp1739
I869
aI1541
aI1739
aa(lp1740
I870
aI1542
aI1740
aa(lp1741
I870
aI1542
aI1741
aa(lp1742
I871
aI1543
aI1742
aa(lp1743
I871
aI1543
aI1743
aa(lp1744
I872
aI1544
aI1744
aa(lp1745
I872
aI1544
aI1745
aa(lp1746
I873
aI1545
aI1746
aa(lp1747
I873
aI1545
aI1747
aa(lp1748
I874
aI1546
aI1748
aa(lp1749
I874
aI1546
aI1749
aa(lp1750
I875
aI1547
aI1750
aa(lp1751
I875
aI1547
aI1751
aa(lp1752
I876
aI1548
aI1752
aa(lp1753
I876
aI1548
aI1753
aa(lp1754
I877
aI1549
aI1754
aa(lp1755
I877
aI1549
aI1755
aa(lp1756
I878
aI1550
aI1756
aa(lp1757
I878
aI1550
aI1757
aa(lp1758
I879
aI1551
aI1758
aa(lp1759
I879
aI1551
aI1759
aa(lp1760
I880
aI1552
aI1760
aa(lp1761
I880
aI1552
aI1761
aa(lp1762
I881
aI1553
aI1762
aa(lp1763
I881
aI1553
aI1763
aa(lp1764
I882
aI1554
aI1764
aa(lp1765
I882
aI1554
aI1765
aa(lp1766
I883
aI1555
aI1766
aa(lp1767
I883
aI1555
aI1767
aa(lp1768
I884
aI1556
aI1768
aa(lp1769
I884
aI1556
aI1769
aa(lp1770
I885
aI1557
aI1770
aa(lp1771
I885
aI1557
aI1771
aa(lp1772
I886
aI1558
aI1772
aa(lp1773
I886
aI1558
aI1773
aa(lp1774
I887
aI1559
aI1774
aa(lp1775
I887
aI1559
aI1775
aa(lp1776
I888
aI1560
aI1776
aa(lp1777
I888
aI1560
aI1777
aa(lp1778
I889
aI1561
aI1778
aa(lp1779
I889
aI1561
aI1779
aa(lp1780
I890
aI1562
aI1780
aa(lp1781
I890
aI1562
aI1781
aa(lp1782
I891
aI1563
aI1782
aa(lp1783
I891
aI1563
aI1783
aa(lp1784
I892
aI1564
aI1784
aa(lp1785
I892
aI1564
aI1785
aa(lp1786
I893
aI1565
aI1786
aa(lp1787
I893
aI1565
aI1787
aa(lp1788
I894
aI1566
aI1788
aa(lp1789
I894
aI1566
aI1789
aa(lp1790
I895
aI1567
aI1790
aa(lp1791
I895
aI1567
aI1791
aa(lp1792
I896
aI1568
aI1792
aa(lp1793
I896
aI1568
aI1793
aa(lp1794
I897
aI1569
aI1794
aa(lp1795
I897
aI1569
aI1795
aa(lp1796
I898
aI1570
aI1796
aa(lp1797
I898
aI1570
aI1797
aa(lp1798
I899
aI1571
aI1798
aa(lp1799
I899
aI1571
aI1799
aa(lp1800
I900
aI1572
aI1800
aa(lp1801
I900
aI1572
aI1801
aa(lp1802
I901
aI1573
aI1802
aa(lp1803
I901
aI1573
aI1803
aa(lp1804
I902
aI1574
aI1804
aa(lp1805
I902
aI1574
aI1805
aa(lp1806
I903
aI1575
aI1806
aa(lp1807
I903
aI1575
aI1807
aa(lp1808
I904
aI1576
aI1808
aa(lp1809
I904
aI1576
aI1809
aa(lp1810
I905
aI1577
aI1810
aa(lp1811
I905
aI1577
aI1811
aa(lp1812
I906
aI1578
aI1812
aa(lp1813
I906
aI1578
aI1813
aa(lp1814
I907
aI1579
aI1814
aa(lp1815
I907
aI1579
aI1815
aa(lp1816
I908
aI1580
aI1816
aa(lp1817
I908
aI1580
aI1817
aa(lp1818
I909
aI1581
aI1818
aa(lp1819
I909
aI1581
aI1819
aa(lp1820
I910
aI1582
aI1820
aa(lp1821
I910
aI1582
aI1821
aa(lp1822
I911
aI1583
aI1822
aa(lp1823
I911
aI1583
aI1823
aa(lp1824
I912
aI1584
aI1824
aa(lp1825
I912
aI1584
aI1825
aa(lp1826
I913
aI1585
aI1826
aa(lp1827
I913
aI1585
aI1827
aa(lp1828
I914
aI1586
aI1828
aa(lp1829
I914
aI1586
aI1829
aa(lp1830
I915
aI1587
aI1830
aa(lp1831
I915
aI1587
aI1831
aa(lp1832
I916
aI1588
aI1832
aa(lp1833
I916
aI1588
aI1833
aa(lp1834
I917
aI1589
aI1834
aa(lp1835
I917
aI1589
aI1835
aa(lp1836
I918
aI1590
aI1836
aa(lp1837
I918
aI1590
aI1837
aa(lp1838
I919
aI1591
aI1838
aa(lp1839
I919
aI1591
aI1839
aa(lp1840
I920
aI1592
aI1840
aa(lp1841
I920
aI1592
aI1841
aa(lp1842
I921
aI1593
aI1842
aa(lp1843
I921
aI1593
aI1843
aa(lp1844
I922
aI1594
aI1844
aa(lp1845
I922
aI1594
aI1845
aa(lp1846
I923
aI1595
aI1846
aa(lp1847
I923
aI1595
aI1847
aa(lp1848
I924
aI1596
aI1848
aa(lp1849
I924
aI1596
aI1849
aa(lp1850
I925
aI1597
aI1850
aa(lp1851
I925
aI1597
aI1851
aa(lp1852
I926
aI1598
aI1852
aa(lp1853
I926
aI1598
aI1853
aa(lp1854
I927
aI1599
aI1854
aa(lp1855
I927
aI1599
aI1855
aa(lp1856
I928
aI1600
aI1856
aa(lp1857
I928
aI1600
aI1857
aa(lp1858
I929
aI1601
aI1858
aa(lp1859
I929
aI1601
aI1859
aa(lp1860
I930
aI1602
aI1860
aa(lp1861
I930
aI1602
aI1861
aa(lp1862
I931
aI1603
aI1862
aa(lp1863
I931
aI1603
aI1863
aa(lp1864
I932
aI1604
aI1864
aa(lp1865
I932
aI1604
aI1865
aa(lp1866
I933
aI1605
aI1866
aa(lp1867
I933
aI1605
aI1867
aa(lp1868
I934
aI1606
aI1868
aa(lp1869
I934
aI1606
aI1869
aa(lp1870
I935
aI1607
aI1870
aa(lp1871
I935
aI1607
aI1871
aa(lp1872
I936
aI1608
aI1872
aa(lp1873
I936
aI1608
aI1873
aa(lp1874
I937
aI1609
aI1874
aa(lp1875
I937
aI1609
aI1875
aa(lp1876
I938
aI1610
aI1876
aa(lp1877
I938
aI1610
aI1877
aa(lp1878
I939
aI1611
aI1878
aa(lp1879
I939
aI1611
aI1879
aa(lp1880
I940
aI1612
aI1880
aa(lp1881
I940
aI1612
aI1881
aa(lp1882
I941
aI1613
aI1882
aa(lp1883
I941
aI1613
aI1883
aa(lp1884
I942
aI1614
aI1884
aa(lp1885
I942
aI1614
aI1885
aa(lp1886
I943
aI1615
aI1886
aa(lp1887
I943
aI1615
aI1887
aa(lp1888
I944
aI1616
aI1888
aa(lp1889
I944
aI1616
aI1889
aa(lp1890
I945
aI1617
aI1890
aa(lp1891
I945
aI1617
aI1891
aa(lp1892
I946
aI1618
aI1892
aa(lp1893
I946
aI1618
aI1893
aa(lp1894
I947
aI1619
aI1894
aa(lp1895
I947
aI1619
aI1895
aa(lp1896
I948
aI1620
aI1896
aa(lp1897
I948
aI1620
aI1897
aa(lp1898
I949
aI1621
aI1898
aa(lp1899
I949
aI1621
aI1899
aa(lp1900
I950
aI1622
aI1900
aa(lp1901
I950
aI1622
aI1901
aa(lp1902
I951
aI1623
aI1902
aa(lp1903
I951
aI1623
aI1903
aa(lp1904
I952
aI1624
aI1904
aa(lp1905
I952
aI1624
aI1905
aa(lp1906
I953
aI1625
aI1906
aa(lp1907
I953
aI1625
aI1907
aa(lp1908
I954
aI1626
aI1908
aa(lp1909
I954
aI1626
aI1909
aa(lp1910
I955
aI1627
aI1910
aa(lp1911
I955
aI1627
aI1911
aa(lp1912
I956
aI1628
aI1912
aa(lp1913
I956
aI1628
aI1913
aa(lp1914
I957
aI1629
aI1914
aa(lp1915
I957
aI1629
aI1915
aa(lp1916
I958
aI1630
aI1916
aa(lp1917
I958
aI1630
aI1917
aa(lp1918
I959
aI1631
aI1918
aa(lp1919
I959
aI1631
aI1919
aa(lp1920
I960
aI1632
aI1920
aa(lp1921
I960
aI1632
aI1921
aa(lp1922
I961
aI1633
aI1922
aa(lp1923
I961
aI1633
aI1923
aa(lp1924
I962
aI1634
aI1924
aa(lp1925
I962
aI1634
aI1925
aa(lp1926
I963
aI1635
aI1926
aa(lp1927
I963
aI1635
aI1927
aa(lp1928
I964
aI1636
aI1928
aa(lp1929
I964
aI1636
aI1929
aa(lp1930
I965
aI1637
aI1930
aa(lp1931
I965
aI1637
aI1931
aa(lp1932
I966
aI1638
aI1932
aa(lp1933
I966
aI1638
aI1933
aa(lp1934
I967
aI1639
aI1934
aa(lp1935
I967
aI1639
aI1935
aa(lp1936
I968
aI1640
aI1936
aa(lp1937
I968
aI1640
aI1937
aa(lp1938
I969
aI1641
aI1938
aa(lp1939
I969
aI1641
aI1939
aa(lp1940
I970
aI1642
aI1940
aa(lp1941
I970
aI1642
aI1941
aa(lp1942
I971
aI1643
aI1942
aa(lp1943
I971
aI1643
aI1943
aa(lp1944
I972
aI1644
aI1944
aa(lp1945
I972
aI1644
aI1945
aa(lp1946
I973
aI1645
aI1946
aa(lp1947
I973
aI1645
aI1947
aa(lp1948
I974
aI1646
aI1948
aa(lp1949
I974
aI1646
aI1949
aa(lp1950
I975
aI1647
aI1950
aa(lp1951
I975
aI1647
aI1951
aa(lp1952
I976
aI1648
aI1952
aa(lp1953
I976
aI1648
aI1953
aa(lp1954
I977
aI1649
aI1954
aa(lp1955
I977
aI1649
aI1955
aa(lp1956
I978
aI1650
aI1956
aa(lp1957
I978
aI1650
aI1957
aa(lp1958
I979
aI1651
aI1958
aa(lp1959
I979
aI1651
aI1959
aa(lp1960
I980
aI1652
aI1960
aa(lp1961
I980
aI1652
aI1961
aa(lp1962
I981
aI1653
aI1962
aa(lp1963
I981
aI1653
aI1963
aa(lp1964
I982
aI1654
aI1964
aa(lp1965
I982
aI1654
aI1965
aa(lp1966
I983
aI1655
aI1966
aa(lp1967
I983
aI1655
aI1967
aa(lp1968
I984
aI1656
aI1968
aa(lp1969
I984
aI1656
aI1969
aa(lp1970
I985
aI1657
aI1970
aa(lp1971
I985
aI1657
aI1971
aa(lp1972
I986
aI1658
aI1972
aa(lp1973
I986
aI1658
aI1973
aa(lp1974
I987
aI1659
aI1974
aa(lp1975
I987
aI1659
aI1975
aa(lp1976
I988
aI1660
aI1976
aa(lp1977
I988
aI1660
aI1977
aa(lp1978
I989
aI1661
aI1978
aa(lp1979
I989
aI1661
aI1979
aa(lp1980
I990
aI1662
aI1980
aa(lp1981
I990
aI1662
aI1981
aa(lp1982
I991
aI1663
aI1982
aa(lp1983
I991
aI1663
aI1983
aa(lp1984
I992
aI1664
aI1984
aa(lp1985
I992
aI1664
aI1985
aa(lp1986
I993
aI1665
aI1986
aa(lp1987
I993
aI1665
aI1987
aa(lp1988
I994
aI1666
aI1988
aa(lp1989
I994
aI1666
aI1989
aa(lp1990
I995
aI1667
aI1990
aa(lp1991
I995
aI1667
aI1991
aa(lp1992
I996
aI1668
aI1992
aa(lp1993
I996
aI1668
aI1993
aa(lp1994
I997
aI1669
aI1994
aa(lp1995
I997
aI1669
aI1995
aa(lp1996
I998
aI1670
aI1996
aa(lp1997
I998
aI1670
aI1997
aa(lp1998
I999
aI1671
aI1998
aa(lp1999
I999
aI1671
aI1999
aa(lp2000
I1000
aI1672
aI2000
aa(lp2001
I1000
aI1672
aI2001
aa(lp2002
I1001
aI1673
aI2002
aa(lp2003
I1001
aI1673
aI2003
aa(lp2004
I1002
aI1674
aI2004
aa(lp2005
I1002
aI1674
aI2005
aa(lp2006
I1003
aI1675
aI2006
aa(lp2007
I1003
aI1675
aI2007
aa(lp2008
I1004
aI1676
aI2008
aa(lp2009
I1004
aI1676
aI2009
aa(lp2010
I1005
aI1677
aI2010
aa(lp2011
I1005
aI1677
aI2011
aa(lp2012
I1006
aI1678
aI2012
aa(lp2013
I1006
aI1678
aI2013
aa(lp2014
I1007
aI1679
aI2014
aa(lp2015
I1007
aI1679
aI2015
aa(lp2016
I1008
aI1680
aI2016
aa(lp2017
I1008
aI1680
aI2017
aa(lp2018
I1009
aI1681
aI2018
aa(lp2019
I1009
aI1681
aI2019
aa(lp2020
I1010
aI1682
aI2020
aa(lp2021
I1010
aI1682
aI2021
aa(lp2022
I1011
aI1683
aI2022
aa(lp2023
I1011
aI1683
aI2023
aa(lp2024
I1012
aI1684
aI2024
aa(lp2025
I1012
aI1684
aI2025
aa(lp2026
I1013
aI1685
aI2026
aa(lp2027
I1013
aI1685
aI2027
aa(lp2028
I1014
aI1686
aI2028
aa(lp2029
I1014
aI1686
aI2029
aa(lp2030
I1015
aI1687
aI2030
aa(lp2031
I1015
aI1687
aI2031
aa(lp2032
I1016
aI1688
aI2032
aa(lp2033
I1016
aI1688
aI2033
aa(lp2034
I1017
aI1689
aI2034
aa(lp2035
I1017
aI1689
aI2035
aa(lp2036
I1018
aI1690
aI2036
aa(lp2037
I1018
aI1690
aI2037
aa(lp2038
I1019
aI1691
aI2038
aa(lp2039
I1019
aI1691
aI2039
aa(lp2040
I1020
aI1692
aI2040
aa(lp2041
I1020
aI1692
aI2041
aa(lp2042
I1021
aI1693
aI2042
aa(lp2043
I1021
aI1693
aI2043
aa(lp2044
I1022
aI1694
aI2044
aa(lp2045
I1022
aI1694
aI2045
aa(lp2046
I1023
aI1695
aI2046
aa(lp2047
I1023
aI1695
aI2047
aa(lp2048
I1024
aI1696
aI2048
aa(lp2049
I1024
aI1696
aI2049
aa(lp2050
I1025
aI1697
aI2050
aa(lp2051
I1025
aI1697
aI2051
aa(lp2052
I1026
aI1698
aI2052
aa(lp2053
I1026
aI1698
aI2053
aa(lp2054
I1027
aI1699
aI2054
aa(lp2055
I1027
aI1699
aI2055
aa(lp2056
I1028
aI1700
aI2056
aa(lp2057
I1028
aI1700
aI2057
aa(lp2058
I1029
aI1701
aI2058
aa(lp2059
I1029
aI1701
aI2059
aa(lp2060
I1030
aI1702
aI2060
aa(lp2061
I1030
aI1702
aI2061
aa(lp2062
I1031
aI1703
aI2062
aa(lp2063
I1031
aI1703
aI2063
aa(lp2064
I1032
aI1704
aI2064
aa(lp2065
I1032
aI1704
aI2065
aa(lp2066
I1033
aI1705
aI2066
aa(lp2067
I1033
aI1705
aI2067
aa(lp2068
I1034
aI1706
aI2068
aa(lp2069
I1034
aI1706
aI2069
aa(lp2070
I1035
aI1707
aI2070
aa(lp2071
I1035
aI1707
aI2071
aa(lp2072
I1036
aI1708
aI2072
aa(lp2073
I1036
aI1708
aI2073
aa(lp2074
I1037
aI1709
aI2074
aa(lp2075
I1037
aI1709
aI2075
aa(lp2076
I1038
aI1710
aI2076
aa(lp2077
I1038
aI1710
aI2077
aa(lp2078
I1039
aI1711
aI2078
aa(lp2079
I1039
aI1711
aI2079
aa(lp2080
I1040
aI1712
aI2080
aa(lp2081
I1040
aI1712
aI2081
aa(lp2082
I1041
aI1713
aI2082
aa(lp2083
I1041
aI1713
aI2083
aa(lp2084
I1042
aI1714
aI2084
aa(lp2085
I1042
aI1714
aI2085
aa(lp2086
I1043
aI1715
aI2086
aa(lp2087
I1043
aI1715
aI2087
aa(lp2088
I1044
aI1716
aI2088
aa(lp2089
I1044
aI1716
aI2089
aa(lp2090
I1045
aI1717
aI2090
aa(lp2091
I1045
aI1717
aI2091
aa(lp2092
I1046
aI1718
aI2092
aa(lp2093
I1046
aI1718
aI2093
aa(lp2094
I1047
aI1719
aI2094
aa(lp2095
I1047
aI1719
aI2095
aa(lp2096
I1048
aI1720
aI2096
aa(lp2097
I1048
aI1720
aI2097
aa(lp2098
I1049
aI1721
aI2098
aa(lp2099
I1049
aI1721
aI2099
aa(lp2100
I1050
aI1722
aI2100
aa(lp2101
I1050
aI1722
aI2101
aa(lp2102
I1051
aI1723
aI2102
aa(lp2103
I1051
aI1723
aI2103
aa(lp2104
I1052
aI1724
aI2104
aa(lp2105
I1052
aI1724
aI2105
aa(lp2106
I1053
aI1725
aI2106
aa(lp2107
I1053
aI1725
aI2107
aa(lp2108
I1054
aI1726
aI2108
aa(lp2109
I1054
aI1726
aI2109
aa(lp2110
I1055
aI1727
aI2110
aa(lp2111
I1055
aI1727
aI2111
aa(lp2112
I1056
aI1728
aI2112
aa(lp2113
I1056
aI1728
aI2113
aa(lp2114
I1057
aI1729
aI2114
aa(lp2115
I1057
aI1729
aI2115
aa(lp2116
I1058
aI1730
aI2116
aa(lp2117
I1058
aI1730
aI2117
aa(lp2118
I1059
aI1731
aI2118
aa(lp2119
I1059
aI1731
aI2119
aa(lp2120
I1060
aI1732
aI2120
aa(lp2121
I1060
aI1732
aI2121
aa(lp2122
I1061
aI1733
aI2122
aa(lp2123
I1061
aI1733
aI2123
aa(lp2124
I1062
aI1734
aI2124
aa(lp2125
I1062
aI1734
aI2125
aa(lp2126
I1063
aI1735
aI2126
aa(lp2127
I1063
aI1735
aI2127
aa(lp2128
I1064
aI1736
aI2128
aa(lp2129
I1064
aI1736
aI2129
aa(lp2130
I1065
aI1737
aI2130
aa(lp2131
I1065
aI1737
aI2131
aa(lp2132
I1066
aI1738
aI2132
aa(lp2133
I1066
aI1738
aI2133
aa(lp2134
I1067
aI1739
aI2134
aa(lp2135
I1067
aI1739
aI2135
aa(lp2136
I1068
aI1740
aI2136
aa(lp2137
I1068
aI1740
aI2137
aa(lp2138
I1069
aI1741
aI2138
aa(lp2139
I1069
aI1741
aI2139
aa(lp2140
I1070
aI1742
aI2140
aa(lp2141
I1070
aI1742
aI2141
aa(lp2142
I1071
aI1743
aI2142
aa(lp2143
I1071
aI1743
aI2143
aa(lp2144
I1072
aI1744
aI2144
aa(lp2145
I1072
aI1744
aI2145
aa(lp2146
I1073
aI1745
aI2146
aa(lp2147
I1073
aI1745
aI2147
aa(lp2148
I1074
aI1746
aI2148
aa(lp2149
I1074
aI1746
aI2149
aa(lp2150
I1075
aI1747
aI2150
aa(lp2151
I1075
aI1747
aI2151
aa(lp2152
I1076
aI1748
aI2152
aa(lp2153
I1076
aI1748
aI2153
aa(lp2154
I1077
aI1749
aI2154
aa(lp2155
I1077
aI1749
aI2155
aa(lp2156
I1078
aI1750
aI2156
aa(lp2157
I1078
aI1750
aI2157
aa(lp2158
I1079
aI1751
aI2158
aa(lp2159
I1079
aI1751
aI2159
aa(lp2160
I1080
aI1752
aI2160
aa(lp2161
I1080
aI1752
aI2161
aa(lp2162
I1081
aI1753
aI2162
aa(lp2163
I1081
aI1753
aI2163
aa(lp2164
I1082
aI1754
aI2164
aa(lp2165
I1082
aI1754
aI2165
aa(lp2166
I1083
aI1755
aI2166
aa(lp2167
I1083
aI1755
aI2167
aa(lp2168
I1084
aI1756
aI2168
aa(lp2169
I1084
aI1756
aI2169
aa(lp2170
I1085
aI1757
aI2170
aa(lp2171
I1085
aI1757
aI2171
aa(lp2172
I1086
aI1758
aI2172
aa(lp2173
I1086
aI1758
aI2173
aa(lp2174
I1087
aI1759
aI2174
aa(lp2175
I1087
aI1759
aI2175
aa(lp2176
I1088
aI1760
aI2176
aa(lp2177
I1088
aI1760
aI2177
aa(lp2178
I1089
aI1761
aI2178
aa(lp2179
I1089
aI1761
aI2179
aa(lp2180
I1090
aI1762
aI2180
aa(lp2181
I1090
aI1762
aI2181
aa(lp2182
I1091
aI1763
aI2182
aa(lp2183
I1091
aI1763
aI2183
aa(lp2184
I1092
aI1764
aI2184
aa(lp2185
I1092
aI1764
aI2185
aa(lp2186
I1093
aI1765
aI2186
aa(lp2187
I1093
aI1765
aI2187
aa(lp2188
I1094
aI1766
aI2188
aa(lp2189
I1094
aI1766
aI2189
aa(lp2190
I1095
aI1767
aI2190
aa(lp2191
I1095
aI1767
aI2191
aa(lp2192
I1096
aI1768
aI2192
aa(lp2193
I1096
aI1768
aI2193
aa(lp2194
I1097
aI1769
aI2194
aa(lp2195
I1097
aI1769
aI2195
aa(lp2196
I1098
aI1770
aI2196
aa(lp2197
I1098
aI1770
aI2197
aa(lp2198
I1099
aI1771
aI2198
aa(lp2199
I1099
aI1771
aI2199
aa(lp2200
I1100
aI1772
aI2200
aa(lp2201
I1100
aI1772
aI2201
aa(lp2202
I1101
aI1773
aI2202
aa(lp2203
I1101
aI1773
aI2203
aa(lp2204
I1102
aI1774
aI2204
aa(lp2205
I1102
aI1774
aI2205
aa(lp2206
I1103
aI1775
aI2206
aa(lp2207
I1103
aI1775
aI2207
aa(lp2208
I1104
aI1776
aI2208
aa(lp2209
I1104
aI1776
aI2209
aa(lp2210
I1105
aI1777
aI2210
aa(lp2211
I1105
aI1777
aI2211
aa(lp2212
I1106
aI1778
aI2212
aa(lp2213
I1106
aI1778
aI2213
aa(lp2214
I1107
aI1779
aI2214
aa(lp2215
I1107
aI1779
aI2215
aa(lp2216
I1108
aI1780
aI2216
aa(lp2217
I1108
aI1780
aI2217
aa(lp2218
I1109
aI1781
aI2218
aa(lp2219
I1109
aI1781
aI2219
aa(lp2220
I1110
aI1782
aI2220
aa(lp2221
I1110
aI1782
aI2221
aa(lp2222
I1111
aI1783
aI2222
aa(lp2223
I1111
aI1783
aI2223
aa(lp2224
I1112
aI1784
aI2224
aa(lp2225
I1112
aI1784
aI2225
aa(lp2226
I1113
aI1785
aI2226
aa(lp2227
I1113
aI1785
aI2227
aa(lp2228
I1114
aI1786
aI2228
aa(lp2229
I1114
aI1786
aI2229
aa(lp2230
I1115
aI1787
aI2230
aa(lp2231
I1115
aI1787
aI2231
aa(lp2232
I1116
aI1788
aI2232
aa(lp2233
I1116
aI1788
aI2233
aa(lp2234
I1117
aI1789
aI2234
aa(lp2235
I1117
aI1789
aI2235
aa(lp2236
I1118
aI1790
aI2236
aa(lp2237
I1118
aI1790
aI2237
aa(lp2238
I1119
aI1791
aI2238
aa(lp2239
I1119
aI1791
aI2239
aa(lp2240
I1120
aI1792
aI2240
aa(lp2241
I1120
aI1792
aI2241
aa(lp2242
I1121
aI1793
aI2242
aa(lp2243
I1121
aI1793
aI2243
aa(lp2244
I1122
aI1794
aI2244
aa(lp2245
I1122
aI1794
aI2245
aa(lp2246
I1123
aI1795
aI2246
aa(lp2247
I1123
aI1795
aI2247
aa(lp2248
I1124
aI1796
aI2248
aa(lp2249
I1124
aI1796
aI2249
aa(lp2250
I1125
aI1797
aI2250
aa(lp2251
I1125
aI1797
aI2251
aa(lp2252
I1126
aI1798
aI2252
aa(lp2253
I1126
aI1798
aI2253
aa(lp2254
I1127
aI1799
aI2254
aa(lp2255
I1127
aI1799
aI2255
aa(lp2256
I1128
aI1800
aI2256
aa(lp2257
I1128
aI1800
aI2257
aa(lp2258
I1129
aI1801
aI2258
aa(lp2259
I1129
aI1801
aI2259
aa(lp2260
I1130
aI1802
aI2260
aa(lp2261
I1130
aI1802
aI2261
aa(lp2262
I1131
aI1803
aI2262
aa(lp2263
I1131
aI1803
aI2263
aa(lp2264
I1132
aI1804
aI2264
aa(lp2265
I1132
aI1804
aI2265
aa(lp2266
I1133
aI1805
aI2266
aa(lp2267
I1133
aI1805
aI2267
aa(lp2268
I1134
aI1806
aI2268
aa(lp2269
I1134
aI1806
aI2269
aa(lp2270
I1135
aI1807
aI2270
aa(lp2271
I1135
aI1807
aI2271
aa(lp2272
I1136
aI1808
aI2272
aa(lp2273
I1136
aI1808
aI2273
aa(lp2274
I1137
aI1809
aI2274
aa(lp2275
I1137
aI1809
aI2275
aa(lp2276
I1138
aI1810
aI2276
aa(lp2277
I1138
aI1810
aI2277
aa(lp2278
I1139
aI1811
aI2278
aa(lp2279
I1139
aI1811
aI2279
aa(lp2280
I1140
aI1812
aI2280
aa(lp2281
I1140
aI1812
aI2281
aa(lp2282
I1141
aI1813
aI2282
aa(lp2283
I1141
aI1813
aI2283
aa(lp2284
I1142
aI1814
aI2284
aa(lp2285
I1142
aI1814
aI2285
aa(lp2286
I1143
aI1815
aI2286
aa(lp2287
I1143
aI1815
aI2287
aa(lp2288
I1144
aI1816
aI2288
aa(lp2289
I1144
aI1816
aI2289
aa(lp2290
I1145
aI1817
aI2290
aa(lp2291
I1145
aI1817
aI2291
aa(lp2292
I1146
aI1818
aI2292
aa(lp2293
I1146
aI1818
aI2293
aa(lp2294
I1147
aI1819
aI2294
aa(lp2295
I1147
aI1819
aI2295
aa(lp2296
I1148
aI1820
aI2296
aa(lp2297
I1148
aI1820
aI2297
aa(lp2298
I1149
aI1821
aI2298
aa(lp2299
I1149
aI1821
aI2299
aa(lp2300
I1150
aI1822
aI2300
aa(lp2301
I1150
aI1822
aI2301
aa(lp2302
I1151
aI1823
aI2302
aa(lp2303
I1151
aI1823
aI2303
aa(lp2304
I1152
aI1824
aI2304
aa(lp2305
I1152
aI1824
aI2305
aa(lp2306
I1153
aI1825
aI2306
aa(lp2307
I1153
aI1825
aI2307
aa(lp2308
I1154
aI1826
aI2308
aa(lp2309
I1154
aI1826
aI2309
aa(lp2310
I1155
aI1827
aI2310
aa(lp2311
I1155
aI1827
aI2311
aa(lp2312
I1156
aI1828
aI2312
aa(lp2313
I1156
aI1828
aI2313
aa(lp2314
I1157
aI1829
aI2314
aa(lp2315
I1157
aI1829
aI2315
aa(lp2316
I1158
aI1830
aI2316
aa(lp2317
I1158
aI1830
aI2317
aa(lp2318
I1159
aI1831
aI2318
aa(lp2319
I1159
aI1831
aI2319
aa(lp2320
I1160
aI1832
aI2320
aa(lp2321
I1160
aI1832
aI2321
aa(lp2322
I1161
aI1833
aI2322
aa(lp2323
I1161
aI1833
aI2323
aa(lp2324
I1162
aI1834
aI2324
aa(lp2325
I1162
aI1834
aI2325
aa(lp2326
I1163
aI1835
aI2326
aa(lp2327
I1163
aI1835
aI2327
aa(lp2328
I1164
aI1836
aI2328
aa(lp2329
I1164
aI1836
aI2329
aa(lp2330
I1165
aI1837
aI2330
aa(lp2331
I1165
aI1837
aI2331
aa(lp2332
I1166
aI1838
aI2332
aa(lp2333
I1166
aI1838
aI2333
aa(lp2334
I1167
aI1839
aI2334
aa(lp2335
I1167
aI1839
aI2335
aa(lp2336
I1168
aI1840
aI2336
aa(lp2337
I1168
aI1840
aI2337
aa(lp2338
I1169
aI1841
aI2338
aa(lp2339
I1169
aI1841
aI2339
aa(lp2340
I1170
aI1842
aI2340
aa(lp2341
I1170
aI1842
aI2341
aa(lp2342
I1171
aI1843
aI2342
aa(lp2343
I1171
aI1843
aI2343
aa(lp2344
I1172
aI1844
aI2344
aa(lp2345
I1172
aI1844
aI2345
aa(lp2346
I1173
aI1845
aI2346
aa(lp2347
I1173
aI1845
aI2347
aa(lp2348
I1174
aI1846
aI2348
aa(lp2349
I1174
aI1846
aI2349
aa(lp2350
I1175
aI1847
aI2350
aa(lp2351
I1175
aI1847
aI2351
aa(lp2352
I1176
aI1848
aI2352
aa(lp2353
I1176
aI1848
aI2353
aa(lp2354
I1177
aI1849
aI2354
aa(lp2355
I1177
aI1849
aI2355
aa(lp2356
I1178
aI1850
aI2356
aa(lp2357
I1178
aI1850
aI2357
aa(lp2358
I1179
aI1851
aI2358
aa(lp2359
I1179
aI1851
aI2359
aa(lp2360
I1180
aI1852
aI2360
aa(lp2361
I1180
aI1852
aI2361
aa(lp2362
I1181
aI1853
aI2362
aa(lp2363
I1181
aI1853
aI2363
aa(lp2364
I1182
aI1854
aI2364
aa(lp2365
I1182
aI1854
aI2365
aa(lp2366
I1183
aI1855
aI2366
aa(lp2367
I1183
aI1855
aI2367
aa(lp2368
I1184
aI1856
aI2368
aa(lp2369
I1184
aI1856
aI2369
aa(lp2370
I1185
aI1857
aI2370
aa(lp2371
I1185
aI1857
aI2371
aa(lp2372
I1186
aI1858
aI2372
aa(lp2373
I1186
aI1858
aI2373
aa(lp2374
I1187
aI1859
aI2374
aa(lp2375
I1187
aI1859
aI2375
aa(lp2376
I1188
aI1860
aI2376
aa(lp2377
I1188
aI1860
aI2377
aa(lp2378
I1189
aI1861
aI2378
aa(lp2379
I1189
aI1861
aI2379
aa(lp2380
I1190
aI1862
aI2380
aa(lp2381
I1190
aI1862
aI2381
aa(lp2382
I1191
aI1863
aI2382
aa(lp2383
I1191
aI1863
aI2383
aa(lp2384
I1192
aI1864
aI2384
aa(lp2385
I1192
aI1864
aI2385
aa(lp2386
I1193
aI1865
aI2386
aa(lp2387
I1193
aI1865
aI2387
aa(lp2388
I1194
aI1866
aI2388
aa(lp2389
I1194
aI1866
aI2389
aa(lp2390
I1195
aI1867
aI2390
aa(lp2391
I1195
aI1867
aI2391
aa(lp2392
I1196
aI1868
aI2392
aa(lp2393
I1196
aI1868
aI2393
aa(lp2394
I1197
aI1869
aI2394
aa(lp2395
I1197
aI1869
aI2395
aa(lp2396
I1198
aI1870
aI2396
aa(lp2397
I1198
aI1870
aI2397
aa(lp2398
I1199
aI1871
aI2398
aa(lp2399
I1199
aI1871
aI2399
aa(lp2400
I1200
aI1872
aI2400
aa(lp2401
I1200
aI1872
aI2401
aa(lp2402
I1201
aI1873
aI2402
aa(lp2403
I1201
aI1873
aI2403
aa(lp2404
I1202
aI1874
aI2404
aa(lp2405
I1202
aI1874
aI2405
aa(lp2406
I1203
aI1875
aI2406
aa(lp2407
I1203
aI1875
aI2407
aa(lp2408
I1204
aI1876
aI2408
aa(lp2409
I1204
aI1876
aI2409
aa(lp2410
I1205
aI1877
aI2410
aa(lp2411
I1205
aI1877
aI2411
aa(lp2412
I1206
aI1878
aI2412
aa(lp2413
I1206
aI1878
aI2413
aa(lp2414
I1207
aI1879
aI2414
aa(lp2415
I1207
aI1879
aI2415
aa(lp2416
I1208
aI1880
aI2416
aa(lp2417
I1208
aI1880
aI2417
aa(lp2418
I1209
aI1881
aI2418
aa(lp2419
I1209
aI1881
aI2419
aa(lp2420
I1210
aI1882
aI2420
aa(lp2421
I1210
aI1882
aI2421
aa(lp2422
I1211
aI1883
aI2422
aa(lp2423
I1211
aI1883
aI2423
aa(lp2424
I1212
aI1884
aI2424
aa(lp2425
I1212
aI1884
aI2425
aa(lp2426
I1213
aI1885
aI2426
aa(lp2427
I1213
aI1885
aI2427
aa(lp2428
I1214
aI1886
aI2428
aa(lp2429
I1214
aI1886
aI2429
aa(lp2430
I1215
aI1887
aI2430
aa(lp2431
I1215
aI1887
aI2431
aa(lp2432
I1216
aI1888
aI2432
aa(lp2433
I1216
aI1888
aI2433
aa(lp2434
I1217
aI1889
aI2434
aa(lp2435
I1217
aI1889
aI2435
aa(lp2436
I1218
aI1890
aI2436
aa(lp2437
I1218
aI1890
aI2437
aa(lp2438
I1219
aI1891
aI2438
aa(lp2439
I1219
aI1891
aI2439
aa(lp2440
I1220
aI1892
aI2440
aa(lp2441
I1220
aI1892
aI2441
aa(lp2442
I1221
aI1893
aI2442
aa(lp2443
I1221
aI1893
aI2443
aa(lp2444
I1222
aI1894
aI2444
aa(lp2445
I1222
aI1894
aI2445
aa(lp2446
I1223
aI1895
aI2446
aa(lp2447
I1223
aI1895
aI2447
aa(lp2448
I1224
aI1896
aI2448
aa(lp2449
I1224
aI1896
aI2449
aa(lp2450
I1225
aI1897
aI2450
aa(lp2451
I1225
aI1897
aI2451
aa(lp2452
I1226
aI1898
aI2452
aa(lp2453
I1226
aI1898
aI2453
aa(lp2454
I1227
aI1899
aI2454
aa(lp2455
I1227
aI1899
aI2455
aa(lp2456
I1228
aI1900
aI2456
aa(lp2457
I1228
aI1900
aI2457
aa(lp2458
I1229
aI1901
aI2458
aa(lp2459
I1229
aI1901
aI2459
aa(lp2460
I1230
aI1902
aI2460
aa(lp2461
I1230
aI1902
aI2461
aa(lp2462
I1231
aI1903
aI2462
aa(lp2463
I1231
aI1903
aI2463
aa(lp2464
I1232
aI1904
aI2464
aa(lp2465
I1232
aI1904
aI2465
aa(lp2466
I1233
aI1905
aI2466
aa(lp2467
I1233
aI1905
aI2467
aa(lp2468
I1234
aI1906
aI2468
aa(lp2469
I1234
aI1906
aI2469
aa(lp2470
I1235
aI1907
aI2470
aa(lp2471
I1235
aI1907
aI2471
aa(lp2472
I1236
aI1908
aI2472
aa(lp2473
I1236
aI1908
aI2473
aa(lp2474
I1237
aI1909
aI2474
aa(lp2475
I1237
aI1909
aI2475
aa(lp2476
I1238
aI1910
aI2476
aa(lp2477
I1238
aI1910
aI2477
aa(lp2478
I1239
aI1911
aI2478
aa(lp2479
I1239
aI1911
aI2479
aa(lp2480
I1240
aI1912
aI2480
aa(lp2481
I1240
aI1912
aI2481
aa(lp2482
I1241
aI1913
aI2482
aa(lp2483
I1241
aI1913
aI2483
aa(lp2484
I1242
aI1914
aI2484
aa(lp2485
I1242
aI1914
aI2485
aa(lp2486
I1243
aI1915
aI2486
aa(lp2487
I1243
aI1915
aI2487
aa(lp2488
I1244
aI1916
aI2488
aa(lp2489
I1244
aI1916
aI2489
aa(lp2490
I1245
aI1917
aI2490
aa(lp2491
I1245
aI1917
aI2491
aa(lp2492
I1246
aI1918
aI2492
aa(lp2493
I1246
aI1918
aI2493
aa(lp2494
I1247
aI1919
aI2494
aa(lp2495
I1247
aI1919
aI2495
aa(lp2496
I1248
aI1920
aI2496
aa(lp2497
I1248
aI1920
aI2497
aa(lp2498
I1249
aI1921
aI2498
aa(lp2499
I1249
aI1921
aI2499
aa(lp2500
I1250
aI1922
aI2500
aa(lp2501
I1250
aI1922
aI2501
aa(lp2502
I1251
aI1923
aI2502
aa(lp2503
I1251
aI1923
aI2503
aa(lp2504
I1252
aI1924
aI2504
aa(lp2505
I1252
aI1924
aI2505
aa(lp2506
I1253
aI1925
aI2506
aa(lp2507
I1253
aI1925
aI2507
aa(lp2508
I1254
aI1926
aI2508
aa(lp2509
I1254
aI1926
aI2509
aa(lp2510
I1255
aI1927
aI2510
aa(lp2511
I1255
aI1927
aI2511
aa(lp2512
I1256
aI1928
aI2512
aa(lp2513
I1256
aI1928
aI2513
aa(lp2514
I1257
aI1929
aI2514
aa(lp2515
I1257
aI1929
aI2515
aa(lp2516
I1258
aI1930
aI2516
aa(lp2517
I1258
aI1930
aI2517
aa(lp2518
I1259
aI1931
aI2518
aa(lp2519
I1259
aI1931
aI2519
aa(lp2520
I1260
aI1932
aI2520
aa(lp2521
I1260
aI1932
aI2521
aa(lp2522
I1261
aI1933
aI2522
aa(lp2523
I1261
aI1933
aI2523
aa(lp2524
I1262
aI1934
aI2524
aa(lp2525
I1262
aI1934
aI2525
aa(lp2526
I1263
aI1935
aI2526
aa(lp2527
I1263
aI1935
aI2527
aa(lp2528
I1264
aI1936
aI2528
aa(lp2529
I1264
aI1936
aI2529
aa(lp2530
I1265
aI1937
aI2530
aa(lp2531
I1265
aI1937
aI2531
aa(lp2532
I1266
aI1938
aI2532
aa(lp2533
I1266
aI1938
aI2533
aa(lp2534
I1267
aI1939
aI2534
aa(lp2535
I1267
aI1939
aI2535
aa(lp2536
I1268
aI1940
aI2536
aa(lp2537
I1268
aI1940
aI2537
aa(lp2538
I1269
aI1941
aI2538
aa(lp2539
I1269
aI1941
aI2539
aa(lp2540
I1270
aI1942
aI2540
aa(lp2541
I1270
aI1942
aI2541
aa(lp2542
I1271
aI1943
aI2542
aa(lp2543
I1271
aI1943
aI2543
aa(lp2544
I1272
aI1944
aI2544
aa(lp2545
I1272
aI1944
aI2545
aa(lp2546
I1273
aI1945
aI2546
aa(lp2547
I1273
aI1945
aI2547
aa(lp2548
I1274
aI1946
aI2548
aa(lp2549
I1274
aI1946
aI2549
aa(lp2550
I1275
aI1947
aI2550
aa(lp2551
I1275
aI1947
aI2551
aa(lp2552
I1276
aI1948
aI2552
aa(lp2553
I1276
aI1948
aI2553
aa(lp2554
I1277
aI1949
aI2554
aa(lp2555
I1277
aI1949
aI2555
aa(lp2556
I1278
aI1950
aI2556
aa(lp2557
I1278
aI1950
aI2557
aa(lp2558
I1279
aI1951
aI2558
aa(lp2559
I1279
aI1951
aI2559
aa(lp2560
I1280
aI1952
aI2560
aa(lp2561
I1280
aI1952
aI2561
aa(lp2562
I1281
aI1953
aI2562
aa(lp2563
I1281
aI1953
aI2563
aa(lp2564
I1282
aI1954
aI2564
aa(lp2565
I1282
aI1954
aI2565
aa(lp2566
I1283
aI1955
aI2566
aa(lp2567
I1283
aI1955
aI2567
aa(lp2568
I1284
aI1956
aI2568
aa(lp2569
I1284
aI1956
aI2569
aa(lp2570
I1285
aI1957
aI2570
aa(lp2571
I1285
aI1957
aI2571
aa(lp2572
I1286
aI1958
aI2572
aa(lp2573
I1286
aI1958
aI2573
aa(lp2574
I1287
aI1959
aI2574
aa(lp2575
I1287
aI1959
aI2575
aa(lp2576
I1288
aI1960
aI2576
aa(lp2577
I1288
aI1960
aI2577
aa(lp2578
I1289
aI1961
aI2578
aa(lp2579
I1289
aI1961
aI2579
aa(lp2580
I1290
aI1962
aI2580
aa(lp2581
I1290
aI1962
aI2581
aa(lp2582
I1291
aI1963
aI2582
aa(lp2583
I1291
aI1963
aI2583
aa(lp2584
I1292
aI1964
aI2584
aa(lp2585
I1292
aI1964
aI2585
aa(lp2586
I1293
aI1965
aI2586
aa(lp2587
I1293
aI1965
aI2587
aa(lp2588
I1294
aI1966
aI2588
aa(lp2589
I1294
aI1966
aI2589
aa(lp2590
I1295
aI1967
aI2590
aa(lp2591
I1295
aI1967
aI2591
aa(lp2592
I1296
aI1968
aI2592
aa(lp2593
I1296
aI1968
aI2593
aa(lp2594
I1297
aI1969
aI2594
aa(lp2595
I1297
aI1969
aI2595
aa(lp2596
I1298
aI1970
aI2596
aa(lp2597
I1298
aI1970
aI2597
aa(lp2598
I1299
aI1971
aI2598
aa(lp2599
I1299
aI1971
aI2599
aa(lp2600
I1300
aI1972
aI2600
aa(lp2601
I1300
aI1972
aI2601
aa(lp2602
I1301
aI1973
aI2602
aa(lp2603
I1301
aI1973
aI2603
aa(lp2604
I1302
aI1974
aI2604
aa(lp2605
I1302
aI1974
aI2605
aa(lp2606
I1303
aI1975
aI2606
aa(lp2607
I1303
aI1975
aI2607
aa(lp2608
I1304
aI1976
aI2608
aa(lp2609
I1304
aI1976
aI2609
aa(lp2610
I1305
aI1977
aI2610
aa(lp2611
I1305
aI1977
aI2611
aa(lp2612
I1306
aI1978
aI2612
aa(lp2613
I1306
aI1978
aI2613
aa(lp2614
I1307
aI1979
aI2614
aa(lp2615
I1307
aI1979
aI2615
aa(lp2616
I1308
aI1980
aI2616
aa(lp2617
I1308
aI1980
aI2617
aa(lp2618
I1309
aI1981
aI2618
aa(lp2619
I1309
aI1981
aI2619
aa(lp2620
I1310
aI1982
aI2620
aa(lp2621
I1310
aI1982
aI2621
aa(lp2622
I1311
aI1983
aI2622
aa(lp2623
I1311
aI1983
aI2623
aa(lp2624
I1312
aI1984
aI2624
aa(lp2625
I1312
aI1984
aI2625
aa(lp2626
I1313
aI1985
aI2626
aa(lp2627
I1313
aI1985
aI2627
aa(lp2628
I1314
aI1986
aI2628
aa(lp2629
I1314
aI1986
aI2629
aa(lp2630
I1315
aI1987
aI2630
aa(lp2631
I1315
aI1987
aI2631
aa(lp2632
I1316
aI1988
aI2632
aa(lp2633
I1316
aI1988
aI2633
aa(lp2634
I1317
aI1989
aI2634
aa(lp2635
I1317
aI1989
aI2635
aa(lp2636
I1318
aI1990
aI2636
aa(lp2637
I1318
aI1990
aI2637
aa(lp2638
I1319
aI1991
aI2638
aa(lp2639
I1319
aI1991
aI2639
aa(lp2640
I1320
aI1992
aI2640
aa(lp2641
I1320
aI1992
aI2641
aa(lp2642
I1321
aI1993
aI2642
aa(lp2643
I1321
aI1993
aI2643
aa(lp2644
I1322
aI1994
aI2644
aa(lp2645
I1322
aI1994
aI2645
aa(lp2646
I1323
aI1995
aI2646
aa(lp2647
I1323
aI1995
aI2647
aa(lp2648
I1324
aI1996
aI2648
aa(lp2649
I1324
aI1996
aI2649
aa(lp2650
I1325
aI1997
aI2650
aa(lp2651
I1325
aI1997
aI2651
aa(lp2652
I1326
aI1998
aI2652
aa(lp2653
I1326
aI1998
aI2653
aa(lp2654
I1327
aI1999
aI2654
aa(lp2655
I1327
aI1999
aI2655
aa(lp2656
I1328
aI2000
aI2656
aa(lp2657
I1328
aI2000
aI2657
aa(lp2658
I1329
aI2001
aI2658
aa(lp2659
I1329
aI2001
aI2659
aa(lp2660
I1330
aI2002
aI2660
aa(lp2661
I1330
aI2002
aI2661
aa(lp2662
I1331
aI2003
aI2662
aa(lp2663
I1331
aI2003
aI2663
aa(lp2664
I1332
aI2004
aI2664
aa(lp2665
I1332
aI2004
aI2665
aa(lp2666
I1333
aI2005
aI2666
aa(lp2667
I1333
aI2005
aI2667
aa(lp2668
I1334
aI2006
aI2668
aa(lp2669
I1334
aI2006
aI2669
aa(lp2670
I1335
aI2007
aI2670
aa(lp2671
I1335
aI2007
aI2671
aa(lp2672
I1336
aI2008
aI2672
aa(lp2673
I1336
aI2008
aI2673
aa(lp2674
I1337
aI2009
aI2674
aa(lp2675
I1337
aI2009
aI2675
aa(lp2676
I1338
aI2010
aI2676
aa(lp2677
I1338
aI2010
aI2677
aa(lp2678
I1339
aI2011
aI2678
aa(lp2679
I1339
aI2011
aI2679
aa(lp2680
I1340
aI2012
aI2680
aa(lp2681
I1340
aI2012
aI2681
aa(lp2682
I1341
aI2013
aI2682
aa(lp2683
I1341
aI2013
aI2683
aa(lp2684
I1342
aI2014
aI2684
aa(lp2685
I1342
aI2014
aI2685
aa(lp2686
I1343
aI2015
aI2686
aa(lp2687
I1343
aI2015
aI2687
aa(lp2688
I1344
aI2016
aI2688
aa(lp2689
I1344
aI2016
aI2689
aa(lp2690
I1345
aI2017
aI2690
aa(lp2691
I1345
aI2017
aI2691
aa(lp2692
I1346
aI2018
aI2692
aa(lp2693
I1346
aI2018
aI2693
aa(lp2694
I1347
aI2019
aI2694
aa(lp2695
I1347
aI2019
aI2695
aa(lp2696
I1348
aI2020
aI2696
aa(lp2697
I1348
aI2020
aI2697
aa(lp2698
I1349
aI2021
aI2698
aa(lp2699
I1349
aI2021
aI2699
aa(lp2700
I1350
aI2022
aI2700
aa(lp2701
I1350
aI2022
aI2701
aa(lp2702
I1351
aI2023
aI2702
aa(lp2703
I1351
aI2023
aI2703
aa(lp2704
I1352
aI2024
aI2704
aa(lp2705
I1352
aI2024
aI2705
aa(lp2706
I1353
aI2025
aI2706
aa(lp2707
I1353
aI2025
aI2707
aa(lp2708
I1354
aI2026
aI2708
aa(lp2709
I1354
aI2026
aI2709
aa(lp2710
I1355
aI2027
aI2710
aa(lp2711
I1355
aI2027
aI2711
aa(lp2712
I1356
aI2028
aI2712
aa(lp2713
I1356
aI2028
aI2713
aa(lp2714
I1357
aI2029
aI2714
aa(lp2715
I1357
aI2029
aI2715
aa(lp2716
I1358
aI2030
aI2716
aa(lp2717
I1358
aI2030
aI2717
aa(lp2718
I1359
aI2031
aI2718
aa(lp2719
I1359
aI2031
aI2719
aa(lp2720
I1360
aI2032
aI2720
aa(lp2721
I1360
aI2032
aI2721
aa(lp2722
I1361
aI2033
aI2722
aa(lp2723
I1361
aI2033
aI2723
aa(lp2724
I1362
aI2034
aI2724
aa(lp2725
I1362
aI2034
aI2725
aa(lp2726
I1363
aI2035
aI2726
aa(lp2727
I1363
aI2035
aI2727
aa(lp2728
I1364
aI2036
aI2728
aa(lp2729
I1364
aI2036
aI2729
aa(lp2730
I1365
aI2037
aI2730
aa(lp2731
I1365
aI2037
aI2731
aa(lp2732
I1366
aI2038
aI2732
aa(lp2733
I1366
aI2038
aI2733
aa(lp2734
I1367
aI2039
aI2734
aa(lp2735
I1367
aI2039
aI2735
aa(lp2736
I1368
aI2040
aI2736
aa(lp2737
I1368
aI2040
aI2737
aa(lp2738
I1369
aI2041
aI2738
aa(lp2739
I1369
aI2041
aI2739
aa(lp2740
I1370
aI2042
aI2740
aa(lp2741
I1370
aI2042
aI2741
aa(lp2742
I1371
aI2043
aI2742
aa(lp2743
I1371
aI2043
aI2743
aa(lp2744
I1372
aI2044
aI2744
aa(lp2745
I1372
aI2044
aI2745
aa(lp2746
I1373
aI2045
aI2746
aa(lp2747
I1373
aI2045
aI2747
aa(lp2748
I1374
aI2046
aI2748
aa(lp2749
I1374
aI2046
aI2749
aa(lp2750
I1375
aI2047
aI2750
aa(lp2751
I1375
aI2047
aI2751
aa(lp2752
I1376
aI2048
aI2752
aa(lp2753
I1376
aI2048
aI2753
aa(lp2754
I1377
aI2049
aI2754
aa(lp2755
I1377
aI2049
aI2755
aa(lp2756
I1378
aI2050
aI2756
aa(lp2757
I1378
aI2050
aI2757
aa(lp2758
I1379
aI2051
aI2758
aa(lp2759
I1379
aI2051
aI2759
aa(lp2760
I1380
aI2052
aI2760
aa(lp2761
I1380
aI2052
aI2761
aa(lp2762
I1381
aI2053
aI2762
aa(lp2763
I1381
aI2053
aI2763
aa(lp2764
I1382
aI2054
aI2764
aa(lp2765
I1382
aI2054
aI2765
aa(lp2766
I1383
aI2055
aI2766
aa(lp2767
I1383
aI2055
aI2767
aa(lp2768
I1384
aI2056
aI2768
aa(lp2769
I1384
aI2056
aI2769
aa(lp2770
I1385
aI2057
aI2770
aa(lp2771
I1385
aI2057
aI2771
aa(lp2772
I1386
aI2058
aI2772
aa(lp2773
I1386
aI2058
aI2773
aa(lp2774
I1387
aI2059
aI2774
aa(lp2775
I1387
aI2059
aI2775
aa(lp2776
I1388
aI2060
aI2776
aa(lp2777
I1388
aI2060
aI2777
aa(lp2778
I1389
aI2061
aI2778
aa(lp2779
I1389
aI2061
aI2779
aa(lp2780
I1390
aI2062
aI2780
aa(lp2781
I1390
aI2062
aI2781
aa(lp2782
I1391
aI2063
aI2782
aa(lp2783
I1391
aI2063
aI2783
aa(lp2784
I1392
aI2064
aI2784
aa(lp2785
I1392
aI2064
aI2785
aa(lp2786
I1393
aI2065
aI2786
aa(lp2787
I1393
aI2065
aI2787
aa(lp2788
I1394
aI2066
aI2788
aa(lp2789
I1394
aI2066
aI2789
aa(lp2790
I1395
aI2067
aI2790
aa(lp2791
I1395
aI2067
aI2791
aa(lp2792
I1396
aI2068
aI2792
aa(lp2793
I1396
aI2068
aI2793
aa(lp2794
I1397
aI2069
aI2794
aa(lp2795
I1397
aI2069
aI2795
aa(lp2796
I1398
aI2070
aI2796
aa(lp2797
I1398
aI2070
aI2797
aa(lp2798
I1399
aI2071
aI2798
aa(lp2799
I1399
aI2071
aI2799
aa(lp2800
I1400
aI2072
aI2800
aa(lp2801
I1400
aI2072
aI2801
aa(lp2802
I1401
aI2073
aI2802
aa(lp2803
I1401
aI2073
aI2803
aa(lp2804
I1402
aI2074
aI2804
aa(lp2805
I1402
aI2074
aI2805
aa(lp2806
I1403
aI2075
aI2806
aa(lp2807
I1403
aI2075
aI2807
aa(lp2808
I1404
aI2076
aI2808
aa(lp2809
I1404
aI2076
aI2809
aa(lp2810
I1405
aI2077
aI2810
aa(lp2811
I1405
aI2077
aI2811
aa(lp2812
I1406
aI2078
aI2812
aa(lp2813
I1406
aI2078
aI2813
aa(lp2814
I1407
aI2079
aI2814
aa(lp2815
I1407
aI2079
aI2815
aa(lp2816
I1408
aI2080
aI2816
aa(lp2817
I1408
aI2080
aI2817
aa(lp2818
I1409
aI2081
aI2818
aa(lp2819
I1409
aI2081
aI2819
aa(lp2820
I1410
aI2082
aI2820
aa(lp2821
I1410
aI2082
aI2821
aa(lp2822
I1411
aI2083
aI2822
aa(lp2823
I1411
aI2083
aI2823
aa(lp2824
I1412
aI2084
aI2824
aa(lp2825
I1412
aI2084
aI2825
aa(lp2826
I1413
aI2085
aI2826
aa(lp2827
I1413
aI2085
aI2827
aa(lp2828
I1414
aI2086
aI2828
aa(lp2829
I1414
aI2086
aI2829
aa(lp2830
I1415
aI2087
aI2830
aa(lp2831
I1415
aI2087
aI2831
aa(lp2832
I1416
aI2088
aI2832
aa(lp2833
I1416
aI2088
aI2833
aa(lp2834
I1417
aI2089
aI2834
aa(lp2835
I1417
aI2089
aI2835
aa(lp2836
I1418
aI2090
aI2836
aa(lp2837
I1418
aI2090
aI2837
aa(lp2838
I1419
aI2091
aI2838
aa(lp2839
I1419
aI2091
aI2839
aa(lp2840
I1420
aI2092
aI2840
aa(lp2841
I1420
aI2092
aI2841
aa(lp2842
I1421
aI2093
aI2842
aa(lp2843
I1421
aI2093
aI2843
aa(lp2844
I1422
aI2094
aI2844
aa(lp2845
I1422
aI2094
aI2845
aa(lp2846
I1423
aI2095
aI2846
aa(lp2847
I1423
aI2095
aI2847
aa(lp2848
I1424
aI2096
aI2848
aa(lp2849
I1424
aI2096
aI2849
aa(lp2850
I1425
aI2097
aI2850
aa(lp2851
I1425
aI2097
aI2851
aa(lp2852
I1426
aI2098
aI2852
aa(lp2853
I1426
aI2098
aI2853
aa(lp2854
I1427
aI2099
aI2854
aa(lp2855
I1427
aI2099
aI2855
aa(lp2856
I1428
aI2100
aI2856
aa(lp2857
I1428
aI2100
aI2857
aa(lp2858
I1429
aI2101
aI2858
aa(lp2859
I1429
aI2101
aI2859
aa(lp2860
I1430
aI2102
aI2860
aa(lp2861
I1430
aI2102
aI2861
aa(lp2862
I1431
aI2103
aI2862
aa(lp2863
I1431
aI2103
aI2863
aa(lp2864
I1432
aI2104
aI2864
aa(lp2865
I1432
aI2104
aI2865
aa(lp2866
I1433
aI2105
aI2866
aa(lp2867
I1433
aI2105
aI2867
aa(lp2868
I1434
aI2106
aI2868
aa(lp2869
I1434
aI2106
aI2869
aa(lp2870
I1435
aI2107
aI2870
aa(lp2871
I1435
aI2107
aI2871
aa(lp2872
I1436
aI2108
aI2872
aa(lp2873
I1436
aI2108
aI2873
aa(lp2874
I1437
aI2109
aI2874
aa(lp2875
I1437
aI2109
aI2875
aa(lp2876
I1438
aI2110
aI2876
aa(lp2877
I1438
aI2110
aI2877
aa(lp2878
I1439
aI2111
aI2878
aa(lp2879
I1439
aI2111
aI2879
aa(lp2880
I1440
aI2112
aI2880
aa(lp2881
I1440
aI2112
aI2881
aa(lp2882
I1441
aI2113
aI2882
aa(lp2883
I1441
aI2113
aI2883
aa(lp2884
I1442
aI2114
aI2884
aa(lp2885
I1442
aI2114
aI2885
aa(lp2886
I1443
aI2115
aI2886
aa(lp2887
I1443
aI2115
aI2887
aa(lp2888
I1444
aI2116
aI2888
aa(lp2889
I1444
aI2116
aI2889
aa(lp2890
I1445
aI2117
aI2890
aa(lp2891
I1445
aI2117
aI2891
aa(lp2892
I1446
aI2118
aI2892
aa(lp2893
I1446
aI2118
aI2893
aa(lp2894
I1447
aI2119
aI2894
aa(lp2895
I1447
aI2119
aI2895
aa(lp2896
I1448
aI2120
aI2896
aa(lp2897
I1448
aI2120
aI2897
aa(lp2898
I1449
aI2121
aI2898
aa(lp2899
I1449
aI2121
aI2899
aa(lp2900
I1450
aI2122
aI2900
aa(lp2901
I1450
aI2122
aI2901
aa(lp2902
I1451
aI2123
aI2902
aa(lp2903
I1451
aI2123
aI2903
aa(lp2904
I1452
aI2124
aI2904
aa(lp2905
I1452
aI2124
aI2905
aa(lp2906
I1453
aI2125
aI2906
aa(lp2907
I1453
aI2125
aI2907
aa(lp2908
I1454
aI2126
aI2908
aa(lp2909
I1454
aI2126
aI2909
aa(lp2910
I1455
aI2127
aI2910
aa(lp2911
I1455
aI2127
aI2911
aa(lp2912
I1456
aI2128
aI2912
aa(lp2913
I1456
aI2128
aI2913
aa(lp2914
I1457
aI2129
aI2914
aa(lp2915
I1457
aI2129
aI2915
aa(lp2916
I1458
aI2130
aI2916
aa(lp2917
I1458
aI2130
aI2917
aa(lp2918
I1459
aI2131
aI2918
aa(lp2919
I1459
aI2131
aI2919
aa(lp2920
I1460
aI2132
aI2920
aa(lp2921
I1460
aI2132
aI2921
aa(lp2922
I1461
aI2133
aI2922
aa(lp2923
I1461
aI2133
aI2923
aa(lp2924
I1462
aI2134
aI2924
aa(lp2925
I1462
aI2134
aI2925
aa(lp2926
I1463
aI2135
aI2926
aa(lp2927
I1463
aI2135
aI2927
aa(lp2928
I1464
aI2136
aI2928
aa(lp2929
I1464
aI2136
aI2929
aa(lp2930
I1465
aI2137
aI2930
aa(lp2931
I1465
aI2137
aI2931
aa(lp2932
I1466
aI2138
aI2932
aa(lp2933
I1466
aI2138
aI2933
aa(lp2934
I1467
aI2139
aI2934
aa(lp2935
I1467
aI2139
aI2935
aa(lp2936
I1468
aI2140
aI2936
aa(lp2937
I1468
aI2140
aI2937
aa(lp2938
I1469
aI2141
aI2938
aa(lp2939
I1469
aI2141
aI2939
aa(lp2940
I1470
aI2142
aI2940
aa(lp2941
I1470
aI2142
aI2941
aa(lp2942
I1471
aI2143
aI2942
aa(lp2943
I1471
aI2143
aI2943
aa(lp2944
I1472
aI2144
aI2944
aa(lp2945
I1472
aI2144
aI2945
aa(lp2946
I1473
aI2145
aI2946
aa(lp2947
I1473
aI2145
aI2947
aa(lp2948
I1474
aI2146
aI2948
aa(lp2949
I1474
aI2146
aI2949
aa(lp2950
I1475
aI2147
aI2950
aa(lp2951
I1475
aI2147
aI2951
aa(lp2952
I1476
aI2148
aI2952
aa(lp2953
I1476
aI2148
aI2953
aa(lp2954
I1477
aI2149
aI2954
aa(lp2955
I1477
aI2149
aI2955
aa(lp2956
I1478
aI2150
aI2956
aa(lp2957
I1478
aI2150
aI2957
aa(lp2958
I1479
aI2151
aI2958
aa(lp2959
I1479
aI2151
aI2959
aa(lp2960
I1480
aI2152
aI2960
aa(lp2961
I1480
aI2152
aI2961
aa(lp2962
I1481
aI2153
aI2962
aa(lp2963
I1481
aI2153
aI2963
aa(lp2964
I1482
aI2154
aI2964
aa(lp2965
I1482
aI2154
aI2965
aa(lp2966
I1483
aI2155
aI2966
aa(lp2967
I1483
aI2155
aI2967
aa(lp2968
I1484
aI2156
aI2968
aa(lp2969
I1484
aI2156
aI2969
aa(lp2970
I1485
aI2157
aI2970
aa(lp2971
I1485
aI2157
aI2971
aa(lp2972
I1486
aI2158
aI2972
aa(lp2973
I1486
aI2158
aI2973
aa(lp2974
I1487
aI2159
aI2974
aa(lp2975
I1487
aI2159
aI2975
aa(lp2976
I1488
aI2160
aI2976
aa(lp2977
I1488
aI2160
aI2977
aa(lp2978
I1489
aI2161
aI2978
aa(lp2979
I1489
aI2161
aI2979
aa(lp2980
I1490
aI2162
aI2980
aa(lp2981
I1490
aI2162
aI2981
aa(lp2982
I1491
aI2163
aI2982
aa(lp2983
I1491
aI2163
aI2983
aa(lp2984
I1492
aI2164
aI2984
aa(lp2985
I1492
aI2164
aI2985
aa(lp2986
I1493
aI2165
aI2986
aa(lp2987
I1493
aI2165
aI2987
aa(lp2988
I1494
aI2166
aI2988
aa(lp2989
I1494
aI2166
aI2989
aa(lp2990
I1495
aI2167
aI2990
aa(lp2991
I1495
aI2167
aI2991
aa(lp2992
I1496
aI2168
aI2992
aa(lp2993
I1496
aI2168
aI2993
aa(lp2994
I1497
aI2169
aI2994
aa(lp2995
I1497
aI2169
aI2995
aa(lp2996
I1498
aI2170
aI2996
aa(lp2997
I1498
aI2170
aI2997
aa(lp2998
I1499
aI2171
aI2998
aa(lp2999
I1499
aI2171
aI2999
aa(lp3000
I1500
aI2172
aI3000
aa(lp3001
I1500
aI2172
aI3001
aa(lp3002
I1501
aI2173
aI3002
aa(lp3003
I1501
aI2173
aI3003
aa(lp3004
I1502
aI2174
aI3004
aa(lp3005
I1502
aI2174
aI3005
aa(lp3006
I1503
aI2175
aI3006
aa(lp3007
I1503
aI2175
aI3007
aa(lp3008
I1504
aI2176
aI3008
aa(lp3009
I1504
aI2176
aI3009
aa(lp3010
I1505
aI2177
aI3010
aa(lp3011
I1505
aI2177
aI3011
aa(lp3012
I1506
aI2178
aI3012
aa(lp3013
I1506
aI2178
aI3013
aa(lp3014
I1507
aI2179
aI3014
aa(lp3015
I1507
aI2179
aI3015
aa(lp3016
I1508
aI2180
aI3016
aa(lp3017
I1508
aI2180
aI3017
aa(lp3018
I1509
aI2181
aI3018
aa(lp3019
I1509
aI2181
aI3019
aa(lp3020
I1510
aI2182
aI3020
aa(lp3021
I1510
aI2182
aI3021
aa(lp3022
I1511
aI2183
aI3022
aa(lp3023
I1511
aI2183
aI3023
aa(lp3024
I1512
aI2184
aI3024
aa(lp3025
I1512
aI2184
aI3025
aa(lp3026
I1513
aI2185
aI3026
aa(lp3027
I1513
aI2185
aI3027
aa(lp3028
I1514
aI2186
aI3028
aa(lp3029
I1514
aI2186
aI3029
aa(lp3030
I1515
aI2187
aI3030
aa(lp3031
I1515
aI2187
aI3031
aa(lp3032
I1516
aI2188
aI3032
aa(lp3033
I1516
aI2188
aI3033
aa(lp3034
I1517
aI2189
aI3034
aa(lp3035
I1517
aI2189
aI3035
aa(lp3036
I1518
aI2190
aI3036
aa(lp3037
I1518
aI2190
aI3037
aa(lp3038
I1519
aI2191
aI3038
aa(lp3039
I1519
aI2191
aI3039
aa(lp3040
I1520
aI2192
aI3040
aa(lp3041
I1520
aI2192
aI3041
aa(lp3042
I1521
aI2193
aI3042
aa(lp3043
I1521
aI2193
aI3043
aa(lp3044
I1522
aI2194
aI3044
aa(lp3045
I1522
aI2194
aI3045
aa(lp3046
I1523
aI2195
aI3046
aa(lp3047
I1523
aI2195
aI3047
aa(lp3048
I1524
aI2196
aI3048
aa(lp3049
I1524
aI2196
aI3049
aa(lp3050
I1525
aI2197
aI3050
aa(lp3051
I1525
aI2197
aI3051
aa(lp3052
I1526
aI2198
aI3052
aa(lp3053
I1526
aI2198
aI3053
aa(lp3054
I1527
aI2199
aI3054
aa(lp3055
I1527
aI2199
aI3055
aa(lp3056
I1528
aI2200
aI3056
aa(lp3057
I1528
aI2200
aI3057
aa(lp3058
I1529
aI2201
aI3058
aa(lp3059
I1529
aI2201
aI3059
aa(lp3060
I1530
aI2202
aI3060
aa(lp3061
I1530
aI2202
aI3061
aa(lp3062
I1531
aI2203
aI3062
aa(lp3063
I1531
aI2203
aI3063
aa(lp3064
I1532
aI2204
aI3064
aa(lp3065
I1532
aI2204
aI3065
aa(lp3066
I1533
aI2205
aI3066
aa(lp3067
I1533
aI2205
aI3067
aa(lp3068
I1534
aI2206
aI3068
aa(lp3069
I1534
aI2206
aI3069
aa(lp3070
I1535
aI2207
aI3070
aa(lp3071
I1535
aI2207
aI3071
aa(lp3072
I1536
aI2208
aI3072
aa(lp3073
I1536
aI2208
aI3073
aa(lp3074
I1537
aI2209
aI3074
aa(lp3075
I1537
aI2209
aI3075
aa(lp3076
I1538
aI2210
aI3076
aa(lp3077
I1538
aI2210
aI3077
aa(lp3078
I1539
aI2211
aI3078
aa(lp3079
I1539
aI2211
aI3079
aa(lp3080
I1540
aI2212
aI3080
aa(lp3081
I1540
aI2212
aI3081
aa(lp3082
I1541
aI2213
aI3082
aa(lp3083
I1541
aI2213
aI3083
aa(lp3084
I1542
aI2214
aI3084
aa(lp3085
I1542
aI2214
aI3085
aa(lp3086
I1543
aI2215
aI3086
aa(lp3087
I1543
aI2215
aI3087
aa(lp3088
I1544
aI2216
aI3088
aa(lp3089
I1544
aI2216
aI3089
aa(lp3090
I1545
aI2217
aI3090
aa(lp3091
I1545
aI2217
aI3091
aa(lp3092
I1546
aI2218
aI3092
aa(lp3093
I1546
aI2218
aI3093
aa(lp3094
I1547
aI2219
aI3094
aa(lp3095
I1547
aI2219
aI3095
aa(lp3096
I1548
aI2220
aI3096
aa(lp3097
I1548
aI2220
aI3097
aa(lp3098
I1549
aI2221
aI3098
aa(lp3099
I1549
aI2221
aI3099
aa(lp3100
I1550
aI2222
aI3100
aa(lp3101
I1550
aI2222
aI3101
aa(lp3102
I1551
aI2223
aI3102
aa(lp3103
I1551
aI2223
aI3103
aa(lp3104
I1552
aI2224
aI3104
aa(lp3105
I1552
aI2224
aI3105
aa(lp3106
I1553
aI2225
aI3106
aa(lp3107
I1553
aI2225
aI3107
aa(lp3108
I1554
aI2226
aI3108
aa(lp3109
I1554
aI2226
aI3109
aa(lp3110
I1555
aI2227
aI3110
aa(lp3111
I1555
aI2227
aI3111
aa(lp3112
I1556
aI2228
aI3112
aa(lp3113
I1556
aI2228
aI3113
aa(lp3114
I1557
aI2229
aI3114
aa(lp3115
I1557
aI2229
aI3115
aa(lp3116
I1558
aI2230
aI3116
aa(lp3117
I1558
aI2230
aI3117
aa(lp3118
I1559
aI2231
aI3118
aa(lp3119
I1559
aI2231
aI3119
aa(lp3120
I1560
aI2232
aI3120
aa(lp3121
I1560
aI2232
aI3121
aa(lp3122
I1561
aI2233
aI3122
aa(lp3123
I1561
aI2233
aI3123
aa(lp3124
I1562
aI2234
aI3124
aa(lp3125
I1562
aI2234
aI3125
aa(lp3126
I1563
aI2235
aI3126
aa(lp3127
I1563
aI2235
aI3127
aa(lp3128
I1564
aI2236
aI3128
aa(lp3129
I1564
aI2236
aI3129
aa(lp3130
I1565
aI2237
aI3130
aa(lp3131
I1565
aI2237
aI3131
aa(lp3132
I1566
aI2238
aI3132
aa(lp3133
I1566
aI2238
aI3133
aa(lp3134
I1567
aI2239
aI3134
aa(lp3135
I1567
aI2239
aI3135
aa(lp3136
I1568
aI2240
aI3136
aa(lp3137
I1568
aI2240
aI3137
aa(lp3138
I1569
aI2241
aI3138
aa(lp3139
I1569
aI2241
aI3139
aa(lp3140
I1570
aI2242
aI3140
aa(lp3141
I1570
aI2242
aI3141
aa(lp3142
I1571
aI2243
aI3142
aa(lp3143
I1571
aI2243
aI3143
aa(lp3144
I1572
aI2244
aI3144
aa(lp3145
I1572
aI2244
aI3145
aa(lp3146
I1573
aI2245
aI3146
aa(lp3147
I1573
aI2245
aI3147
aa(lp3148
I1574
aI2246
aI3148
aa(lp3149
I1574
aI2246
aI3149
aa(lp3150
I1575
aI2247
aI3150
aa(lp3151
I1575
aI2247
aI3151
aa(lp3152
I1576
aI2248
aI3152
aa(lp3153
I1576
aI2248
aI3153
aa(lp3154
I1577
aI2249
aI3154
aa(lp3155
I1577
aI2249
aI3155
aa(lp3156
I1578
aI2250
aI3156
aa(lp3157
I1578
aI2250
aI3157
aa(lp3158
I1579
aI2251
aI3158
aa(lp3159
I1579
aI2251
aI3159
aa(lp3160
I1580
aI2252
aI3160
aa(lp3161
I1580
aI2252
aI3161
aa(lp3162
I1581
aI2253
aI3162
aa(lp3163
I1581
aI2253
aI3163
aa(lp3164
I1582
aI2254
aI3164
aa(lp3165
I1582
aI2254
aI3165
aa(lp3166
I1583
aI2255
aI3166
aa(lp3167
I1583
aI2255
aI3167
aa(lp3168
I1584
aI2256
aI3168
aa(lp3169
I1584
aI2256
aI3169
aa(lp3170
I1585
aI2257
aI3170
aa(lp3171
I1585
aI2257
aI3171
aa(lp3172
I1586
aI2258
aI3172
aa(lp3173
I1586
aI2258
aI3173
aa(lp3174
I1587
aI2259
aI3174
aa(lp3175
I1587
aI2259
aI3175
aa(lp3176
I1588
aI2260
aI3176
aa(lp3177
I1588
aI2260
aI3177
aa(lp3178
I1589
aI2261
aI3178
aa(lp3179
I1589
aI2261
aI3179
aa(lp3180
I1590
aI2262
aI3180
aa(lp3181
I1590
aI2262
aI3181
aa(lp3182
I1591
aI2263
aI3182
aa(lp3183
I1591
aI2263
aI3183
aa(lp3184
I1592
aI2264
aI3184
aa(lp3185
I1592
aI2264
aI3185
aa(lp3186
I1593
aI2265
aI3186
aa(lp3187
I1593
aI2265
aI3187
aa(lp3188
I1594
aI2266
aI3188
aa(lp3189
I1594
aI2266
aI3189
aa(lp3190
I1595
aI2267
aI3190
aa(lp3191
I1595
aI2267
aI3191
aa(lp3192
I1596
aI2268
aI3192
aa(lp3193
I1596
aI2268
aI3193
aa(lp3194
I1597
aI2269
aI3194
aa(lp3195
I1597
aI2269
aI3195
aa(lp3196
I1598
aI2270
aI3196
aa(lp3197
I1598
aI2270
aI3197
aa(lp3198
I1599
aI2271
aI3198
aa(lp3199
I1599
aI2271
aI3199
aa(lp3200
I1600
aI2272
aI3200
aa(lp3201
I1600
aI2272
aI3201
aa(lp3202
I1601
aI2273
aI3202
aa(lp3203
I1601
aI2273
aI3203
aa(lp3204
I1602
aI2274
aI3204
aa(lp3205
I1602
aI2274
aI3205
aa(lp3206
I1603
aI2275
aI3206
aa(lp3207
I1603
aI2275
aI3207
aa(lp3208
I1604
aI2276
aI3208
aa(lp3209
I1604
aI2276
aI3209
aa(lp3210
I1605
aI2277
aI3210
aa(lp3211
I1605
aI2277
aI3211
aa(lp3212
I1606
aI2278
aI3212
aa(lp3213
I1606
aI2278
aI3213
aa(lp3214
I1607
aI2279
aI3214
aa(lp3215
I1607
aI2279
aI3215
aa(lp3216
I1608
aI2280
aI3216
aa(lp3217
I1608
aI2280
aI3217
aa(lp3218
I1609
aI2281
aI3218
aa(lp3219
I1609
aI2281
aI3219
aa(lp3220
I1610
aI2282
aI3220
aa(lp3221
I1610
aI2282
aI3221
aa(lp3222
I1611
aI2283
aI3222
aa(lp3223
I1611
aI2283
aI3223
aa(lp3224
I1612
aI2284
aI3224
aa(lp3225
I1612
aI2284
aI3225
aa(lp3226
I1613
aI2285
aI3226
aa(lp3227
I1613
aI2285
aI3227
aa(lp3228
I1614
aI2286
aI3228
aa(lp3229
I1614
aI2286
aI3229
aa(lp3230
I1615
aI2287
aI3230
aa(lp3231
I1615
aI2287
aI3231
aa(lp3232
I1616
aI2288
aI3232
aa(lp3233
I1616
aI2288
aI3233
aa(lp3234
I1617
aI2289
aI3234
aa(lp3235
I1617
aI2289
aI3235
aa(lp3236
I1618
aI2290
aI3236
aa(lp3237
I1618
aI2290
aI3237
aa(lp3238
I1619
aI2291
aI3238
aa(lp3239
I1619
aI2291
aI3239
aa(lp3240
I1620
aI2292
aI3240
aa(lp3241
I1620
aI2292
aI3241
aa(lp3242
I1621
aI2293
aI3242
aa(lp3243
I1621
aI2293
aI3243
aa(lp3244
I1622
aI2294
aI3244
aa(lp3245
I1622
aI2294
aI3245
aa(lp3246
I1623
aI2295
aI3246
aa(lp3247
I1623
aI2295
aI3247
aa(lp3248
I1624
aI2296
aI3248
aa(lp3249
I1624
aI2296
aI3249
aa(lp3250
I1625
aI2297
aI3250
aa(lp3251
I1625
aI2297
aI3251
aa(lp3252
I1626
aI2298
aI3252
aa(lp3253
I1626
aI2298
aI3253
aa(lp3254
I1627
aI2299
aI3254
aa(lp3255
I1627
aI2299
aI3255
aa(lp3256
I1628
aI2300
aI3256
aa(lp3257
I1628
aI2300
aI3257
aa(lp3258
I1629
aI2301
aI3258
aa(lp3259
I1629
aI2301
aI3259
aa(lp3260
I1630
aI2302
aI3260
aa(lp3261
I1630
aI2302
aI3261
aa(lp3262
I1631
aI2303
aI3262
aa(lp3263
I1631
aI2303
aI3263
aa(lp3264
I1632
aI2304
aI3264
aa(lp3265
I1632
aI2304
aI3265
aa(lp3266
I1633
aI2305
aI3266
aa(lp3267
I1633
aI2305
aI3267
aa(lp3268
I1634
aI2306
aI3268
aa(lp3269
I1634
aI2306
aI3269
aa(lp3270
I1635
aI2307
aI3270
aa(lp3271
I1635
aI2307
aI3271
aa(lp3272
I1636
aI2308
aI3272
aa(lp3273
I1636
aI2308
aI3273
aa(lp3274
I1637
aI2309
aI3274
aa(lp3275
I1637
aI2309
aI3275
aa(lp3276
I1638
aI2310
aI3276
aa(lp3277
I1638
aI2310
aI3277
aa(lp3278
I1639
aI2311
aI3278
aa(lp3279
I1639
aI2311
aI3279
aa(lp3280
I1640
aI2312
aI3280
aa(lp3281
I1640
aI2312
aI3281
aa(lp3282
I1641
aI2313
aI3282
aa(lp3283
I1641
aI2313
aI3283
aa(lp3284
I1642
aI2314
aI3284
aa(lp3285
I1642
aI2314
aI3285
aa(lp3286
I1643
aI2315
aI3286
aa(lp3287
I1643
aI2315
aI3287
aa(lp3288
I1644
aI2316
aI3288
aa(lp3289
I1644
aI2316
aI3289
aa(lp3290
I1645
aI2317
aI3290
aa(lp3291
I1645
aI2317
aI3291
aa(lp3292
I1646
aI2318
aI3292
aa(lp3293
I1646
aI2318
aI3293
aa(lp3294
I1647
aI2319
aI3294
aa(lp3295
I1647
aI2319
aI3295
aa(lp3296
I1648
aI2320
aI3296
aa(lp3297
I1648
aI2320
aI3297
aa(lp3298
I1649
aI2321
aI3298
aa(lp3299
I1649
aI2321
aI3299
aa(lp3300
I1650
aI2322
aI3300
aa(lp3301
I1650
aI2322
aI3301
aa(lp3302
I1651
aI2323
aI3302
aa(lp3303
I1651
aI2323
aI3303
aa(lp3304
I1652
aI2324
aI3304
aa(lp3305
I1652
aI2324
aI3305
aa(lp3306
I1653
aI2325
aI3306
aa(lp3307
I1653
aI2325
aI3307
aa(lp3308
I1654
aI2326
aI3308
aa(lp3309
I1654
aI2326
aI3309
aa(lp3310
I1655
aI2327
aI3310
aa(lp3311
I1655
aI2327
aI3311
aa(lp3312
I1656
aI2328
aI3312
aa(lp3313
I1656
aI2328
aI3313
aa(lp3314
I1657
aI2329
aI3314
aa(lp3315
I1657
aI2329
aI3315
aa(lp3316
I1658
aI2330
aI3316
aa(lp3317
I1658
aI2330
aI3317
aa(lp3318
I1659
aI2331
aI3318
aa(lp3319
I1659
aI2331
aI3319
aa(lp3320
I1660
aI2332
aI3320
aa(lp3321
I1660
aI2332
aI3321
aa(lp3322
I1661
aI2333
aI3322
aa(lp3323
I1661
aI2333
aI3323
aa(lp3324
I1662
aI2334
aI3324
aa(lp3325
I1662
aI2334
aI3325
aa(lp3326
I1663
aI2335
aI3326
aa(lp3327
I1663
aI2335
aI3327
aa(lp3328
I1664
aI2336
aI3328
aa(lp3329
I1664
aI2336
aI3329
aa(lp3330
I1665
aI2337
aI3330
aa(lp3331
I1665
aI2337
aI3331
aa(lp3332
I1666
aI2338
aI3332
aa(lp3333
I1666
aI2338
aI3333
aa(lp3334
I1667
aI2339
aI3334
aa(lp3335
I1667
aI2339
aI3335
aa(lp3336
I1668
aI2340
aI3336
aa(lp3337
I1668
aI2340
aI3337
aa(lp3338
I1669
aI2341
aI3338
aa(lp3339
I1669
aI2341
aI3339
aa(lp3340
I1670
aI2342
aI3340
aa(lp3341
I1670
aI2342
aI3341
aa(lp3342
I1671
aI2343
aI3342
aa(lp3343
I1671
aI2343
aI3343
aa(lp3344
I1672
aI2344
aI3344
aa(lp3345
I1672
aI2344
aI3345
aa(lp3346
I1673
aI2345
aI3346
aa(lp3347
I1673
aI2345
aI3347
aa(lp3348
I1674
aI2346
aI3348
aa(lp3349
I1674
aI2346
aI3349
aa(lp3350
I1675
aI2347
aI3350
aa(lp3351
I1675
aI2347
aI3351
aa(lp3352
I1676
aI2348
aI3352
aa(lp3353
I1676
aI2348
aI3353
aa(lp3354
I1677
aI2349
aI3354
aa(lp3355
I1677
aI2349
aI3355
aa(lp3356
I1678
aI2350
aI3356
aa(lp3357
I1678
aI2350
aI3357
aa(lp3358
I1679
aI2351
aI3358
aa(lp3359
I1679
aI2351
aI3359
aa(lp3360
I1680
aI2352
aI3360
aa(lp3361
I1680
aI2352
aI3361
aa(lp3362
I1681
aI2353
aI3362
aa(lp3363
I1681
aI2353
aI3363
aa(lp3364
I1682
aI2354
aI3364
aa(lp3365
I1682
aI2354
aI3365
aa(lp3366
I1683
aI2355
aI3366
aa(lp3367
I1683
aI2355
aI3367
aa(lp3368
I1684
aI2356
aI3368
aa(lp3369
I1684
aI2356
aI3369
aa(lp3370
I1685
aI2357
aI3370
aa(lp3371
I1685
aI2357
aI3371
aa(lp3372
I1686
aI2358
aI3372
aa(lp3373
I1686
aI2358
aI3373
aa(lp3374
I1687
aI2359
aI3374
aa(lp3375
I1687
aI2359
aI3375
aa(lp3376
I1688
aI2360
aI3376
aa(lp3377
I1688
aI2360
aI3377
aa(lp3378
I1689
aI2361
aI3378
aa(lp3379
I1689
aI2361
aI3379
aa(lp3380
I1690
aI2362
aI3380
aa(lp3381
I1690
aI2362
aI3381
aa(lp3382
I1691
aI2363
aI3382
aa(lp3383
I1691
aI2363
aI3383
aa(lp3384
I1692
aI2364
aI3384
aa(lp3385
I1692
aI2364
aI3385
aa(lp3386
I1693
aI2365
aI3386
aa(lp3387
I1693
aI2365
aI3387
aa(lp3388
I1694
aI2366
aI3388
aa(lp3389
I1694
aI2366
aI3389
aa(lp3390
I1695
aI2367
aI3390
aa(lp3391
I1695
aI2367
aI3391
aa(lp3392
I1696
aI2368
aI3392
aa(lp3393
I1696
aI2368
aI3393
aa(lp3394
I1697
aI2369
aI3394
aa(lp3395
I1697
aI2369
aI3395
aa(lp3396
I1698
aI2370
aI3396
aa(lp3397
I1698
aI2370
aI3397
aa(lp3398
I1699
aI2371
aI3398
aa(lp3399
I1699
aI2371
aI3399
aa(lp3400
I1700
aI2372
aI3400
aa(lp3401
I1700
aI2372
aI3401
aa(lp3402
I1701
aI2373
aI3402
aa(lp3403
I1701
aI2373
aI3403
aa(lp3404
I1702
aI2374
aI3404
aa(lp3405
I1702
aI2374
aI3405
aa(lp3406
I1703
aI2375
aI3406
aa(lp3407
I1703
aI2375
aI3407
aa(lp3408
I1704
aI2376
aI3408
aa(lp3409
I1704
aI2376
aI3409
aa(lp3410
I1705
aI2377
aI3410
aa(lp3411
I1705
aI2377
aI3411
aa(lp3412
I1706
aI2378
aI3412
aa(lp3413
I1706
aI2378
aI3413
aa(lp3414
I1707
aI2379
aI3414
aa(lp3415
I1707
aI2379
aI3415
aa(lp3416
I1708
aI2380
aI3416
aa(lp3417
I1708
aI2380
aI3417
aa(lp3418
I1709
aI2381
aI3418
aa(lp3419
I1709
aI2381
aI3419
aa(lp3420
I1710
aI2382
aI3420
aa(lp3421
I1710
aI2382
aI3421
aa(lp3422
I1711
aI2383
aI3422
aa(lp3423
I1711
aI2383
aI3423
aa(lp3424
I1712
aI2384
aI3424
aa(lp3425
I1712
aI2384
aI3425
aa(lp3426
I1713
aI2385
aI3426
aa(lp3427
I1713
aI2385
aI3427
aa(lp3428
I1714
aI2386
aI3428
aa(lp3429
I1714
aI2386
aI3429
aa(lp3430
I1715
aI2387
aI3430
aa(lp3431
I1715
aI2387
aI3431
aa(lp3432
I1716
aI2388
aI3432
aa(lp3433
I1716
aI2388
aI3433
aa(lp3434
I1717
aI2389
aI3434
aa(lp3435
I1717
aI2389
aI3435
aa(lp3436
I1718
aI2390
aI3436
aa(lp3437
I1718
aI2390
aI3437
aa(lp3438
I1719
aI2391
aI3438
aa(lp3439
I1719
aI2391
aI3439
aa(lp3440
I1720
aI2392
aI3440
aa(lp3441
I1720
aI2392
aI3441
aa(lp3442
I1721
aI2393
aI3442
aa(lp3443
I1721
aI2393
aI3443
aa(lp3444
I1722
aI2394
aI3444
aa(lp3445
I1722
aI2394
aI3445
aa(lp3446
I1723
aI2395
aI3446
aa(lp3447
I1723
aI2395
aI3447
aa(lp3448
I1724
aI2396
aI3448
aa(lp3449
I1724
aI2396
aI3449
aa(lp3450
I1725
aI2397
aI3450
aa(lp3451
I1725
aI2397
aI3451
aa(lp3452
I1726
aI2398
aI3452
aa(lp3453
I1726
aI2398
aI3453
aa(lp3454
I1727
aI2399
aI3454
aa(lp3455
I1727
aI2399
aI3455
aa.