(lp1
(F0
F104
F0.25
tp2
a(F0
F104
F0.55000001192092896
tp3
a(F0
F104
F0.85000002384185791
tp4
a(F0
F104
F1.1499999761581421
tp5
a(F0
F104
F1.4500000476837158
tp6
a(F0
F104
F1.75
tp7
a(F0
F104
F2.0499999523162842
tp8
a(F0
F104
F2.3499999046325684
tp9
a(F0
F104
F2.6500000953674316
tp10
a(F0
F104
F2.9500000476837158
tp11
a(F0
F104
F3.25
tp12
a(F0
F104
F3.5499999523162842
tp13
a(F0
F104
F3.8499999046325684
tp14
a(F0
F104
F4.1500000953674316
tp15
a(F0
F104
F4.4499998092651367
tp16
a(F0
F104
F4.75
tp17
a(F0
F104
F5.0500001907348633
tp18
a(F0
F104
F5.3499999046325684
tp19
a(F0
F104
F5.6500000953674316
tp20
a(F0
F104
F5.9499998092651367
tp21
a(F0
F104
F6.25
tp22
a(F0
F104
F6.5500001907348633
tp23
a(F0
F104
F6.8499999046325684
tp24
a(F0
F104
F7.1500000953674316
tp25
a(F0
F104
F7.4499998092651367
tp26
a(F0
F104
F7.75
tp27
a(F0
F104
F8.0500001907348633
tp28
a(F0
F104
F8.3500003814697266
tp29
a(F0
F104
F8.6499996185302734
tp30
a(F0
F104
F8.9499998092651367
tp31
a(F0
F104
F9.25
tp32
a(F0
F104
F9.5500001907348633
tp33
a(F0
F104
F9.8500003814697266
tp34
a(F0
F104
F10.149999618530273
tp35
a(F0
F104
F10.449999809265137
tp36
a(F0
F104
F10.75
tp37
a(F0
F104
F11.050000190734863
tp38
a(F0
F104
F11.350000381469727
tp39
a(F0
F104
F11.649999618530273
tp40
a(F0
F104
F11.949999809265137
tp41
a(F0
F104
F12.25
tp42
a(F0
F104
F12.550000190734863
tp43
a(F0
F104
F12.850000381469727
tp44
a(F0
F104
F13.149999618530273
tp45
a(F0
F104
F13.449999809265137
tp46
a(F0
F104
F13.75
tp47
a(F0
F104
F14.050000190734863
tp48
a(F0
F104
F14.350000381469727
tp49
a(F0
F104
F14.649999618530273
tp50
a(F0
F104
F14.949999809265137
tp51
a(F0
F104
F15.25
tp52
a(F0
F104
F15.550000190734863
tp53
a(F0
F104
F15.850000381469727
tp54
a(F0
F104
F16.149999618530273
tp55
a(F0
F104
F16.450000762939453
tp56
a(F0
F104
F16.75
tp57
a(F0
F104
F17.049999237060547
tp58
a(F0
F104
F17.350000381469727
tp59
a(F0
F104
F17.649999618530273
tp60
a(F0
F104
F17.950000762939453
tp61
a(F0
F104
F18.25
tp62
a(F0
F104
F18.549999237060547
tp63
a(F0
F104
F18.850000381469727
tp64
a(F0
F104
F19.149999618530273
tp65
a(F0
F104
F19.450000762939453
tp66
a(F0
F104
F19.75
tp67
a(F0
F104
F20.049999237060547
tp68
a(F0
F104
F20.350000381469727
tp69
a(F0
F104
F20.649999618530273
tp70
a(F0
F104
F20.950000762939453
tp71
a(F0
F104
F21.25
tp72
a(F0
F104
F21.549999237060547
tp73
a(F0
F104
F21.850000381469727
tp74
a(F0
F104
F22.149999618530273
tp75
a(F0
F104
F22.450000762939453
tp76
a(F0
F104
F22.75
tp77
a(F0
F104
F23.049999237060547
tp78
a(F0
F104
F23.350000381469727
tp79
a(F0
F104
F23.649999618530273
tp80
a(F0
F104
F23.950000762939453
tp81
a(F0
F104
F24.25
tp82
a(F0
F104
F24.549999237060547
tp83
a(F0
F104
F24.850000381469727
tp84
a(F0
F104
F25.149999618530273
tp85
a(F0
F104
F25.450000762939453
tp86
a(F0
F104
F25.75
tp87
a(F0
F104
F26.049999237060547
tp88
a(F0
F104
F26.350000381469727
tp89
a(F0
F104
F26.649999618530273
tp90
a(F0
F104
F26.950000762939453
tp91
a(F0
F104
F27.25
tp92
a(F0
F104
F27.549999237060547
tp93
a(F0
F104
F27.850000381469727
tp94
a(F0
F104
F28.149999618530273
tp95
a(F0
F104
F28.450000762939453
tp96
a(F0
F104
F28.75
tp97
a(F0
F104
F29.049999237060547
tp98
a(F0
F104
F29.350000381469727
tp99
a(F0
F104
F29.649999618530273
tp100
a(F0
F104
F29.950000762939453
tp101
a(F0
F104
F30.25
tp102
a(F0
F104
F30.549999237060547
tp103
a(F0
F104
F30.850000381469727
tp104
a(F0
F104
F31.149999618530273
tp105
a(F0
F104
F31.450000762939453
tp106
a(F0
F104
F31.75
tp107
a(F0
F104
F32.049999237060547
tp108
a(F0
F104
F32.349998474121094
tp109
a(F0
F104
F32.650001525878906
tp110
a(F0
F104
F32.950000762939453
tp111
a(F0
F104
F33.25
tp112
a(F0
F104
F33.549999237060547
tp113
a(F0
F104
F33.849998474121094
tp114
a(F0
F104
F34.150001525878906
tp115
a(F0
F104
F34.450000762939453
tp116
a(F0
F104
F34.75
tp117
a(F0
F104
F35.049999237060547
tp118
a(F0
F104
F35.349998474121094
tp119
a(F0
F104
F35.650001525878906
tp120
a(F0
F104
F35.950000762939453
tp121
a(F0
F104
F36.25
tp122
a(F0
F104
F36.549999237060547
tp123
a(F0
F104
F36.849998474121094
tp124
a(F0
F104
F37.150001525878906
tp125
a(F0
F104
F37.450000762939453
tp126
a(F0
F104
F37.75
tp127
a(F0
F104
F38.049999237060547
tp128
a(F0
F104
F38.349998474121094
tp129
a(F0
F104
F38.650001525878906
tp130
a(F0
F104
F38.950000762939453
tp131
a(F0
F104
F39.25
tp132
a(F0
F104
F39.549999237060547
tp133
a(F0
F104
F39.849998474121094
tp134
a(F0
F104
F40.150001525878906
tp135
a(F0
F104
F40.450000762939453
tp136
a(F0
F104
F40.75
tp137
a(F0
F104
F41.049999237060547
tp138
a(F0
F104
F41.349998474121094
tp139
a(F0
F104
F41.650001525878906
tp140
a(F0
F104
F41.950000762939453
tp141
a(F0
F104
F42.25
tp142
a(F0
F104
F42.549999237060547
tp143
a(F0
F104
F42.849998474121094
tp144
a(F0
F104
F43.150001525878906
tp145
a(F0
F104
F43.450000762939453
tp146
a(F0
F104
F43.75
tp147
a(F0
F104
F44.049999237060547
tp148
a(F0
F104
F44.349998474121094
tp149
a(F0
F104
F44.650001525878906
tp150
a(F0
F104
F44.950000762939453
tp151
a(F0
F104
F45.25
tp152
a(F0
F104
F45.549999237060547
tp153
a(F0
F104
F45.849998474121094
tp154
a(F0
F104
F46.150001525878906
tp155
a(F0
F104
F46.450000762939453
tp156
a(F0
F104
F46.75
tp157
a(F0
F104
F47.049999237060547
tp158
a(F0
F104
F47.349998474121094
tp159
a(F0
F104
F47.650001525878906
tp160
a(F0
F104
F47.950000762939453
tp161
a(F0
F104
F48.25
tp162
a(F0
F104
F48.549999237060547
tp163
a(F0
F104
F48.849998474121094
tp164
a(F0
F104
F49.150001525878906
tp165
a(F0
F104
F49.450000762939453
tp166
a(F0
F104
F49.75
tp167
a(F0
F104
F50.049999237060547
tp168
a(F0
F104
F50.349998474121094
tp169
a(F0
F104
F50.650001525878906
tp170
a(F0
F104
F50.950000762939453
tp171
a(F0
F104
F51.25
tp172
a(F0
F104
F51.549999237060547
tp173
a(F0
F104
F51.849998474121094
tp174
a(F0
F104
F52.150001525878906
tp175
a(F0
F104
F52.450000762939453
tp176
a(F0
F104
F52.75
tp177
a(F0
F104
F53.049999237060547
tp178
a(F0
F104
F53.349998474121094
tp179
a(F0
F104
F53.650001525878906
tp180
a(F0
F104
F53.950000762939453
tp181
a(F0
F104
F54.25
tp182
a(F0
F104
F54.549999237060547
tp183
a(F0
F104
F54.849998474121094
tp184
a(F0
F104
F55.150001525878906
tp185
a(F0
F104
F55.450000762939453
tp186
a(F0
F104
F55.75
tp187
a(F0
F104
F56.049999237060547
tp188
a(F0
F104
F56.349998474121094
tp189
a(F0
F104
F56.650001525878906
tp190
a(F0
F104
F56.950000762939453
tp191
a(F0
F104
F57.25
tp192
a(F0
F104
F57.549999237060547
tp193
a(F0
F104
F57.849998474121094
tp194
a(F0
F104
F58.150001525878906
tp195
a(F0
F104
F58.450000762939453
tp196
a(F0
F104
F58.75
tp197
a(F0
F104
F59.049999237060547
tp198
a(F0
F104
F59.349998474121094
tp199
a(F0
F104
F59.650001525878906
tp200
a(F0
F104
F59.950000762939453
tp201
a(F0
F104
F60.25
tp202
a(F0
F104
F60.549999237060547
tp203
a(F0
F104
F60.849998474121094
tp204
a(F0
F104
F61.150001525878906
tp205
a(F0
F104
F61.450000762939453
tp206
a(F0
F104
F61.75
tp207
a(F0
F104
F62.049999237060547
tp208
a(F0
F104
F62.349998474121094
tp209
a(F0
F104
F62.650001525878906
tp210
a(F0
F104
F62.950000762939453
tp211
a(F0
F104
F63.25
tp212
a(F0
F104
F63.549999237060547
tp213
a(F0
F104
F63.849998474121094
tp214
a(F0
F104
F64.150001525878906
tp215
a(F0
F104
F64.449996948242188
tp216
a(F0
F104
F64.75
tp217
a(F0
F104
F65.050003051757812
tp218
a(F0
F104
F65.349998474121094
tp219
a(F0
F104
F65.650001525878906
tp220
a(F0
F104
F65.949996948242188
tp221
a(F0
F104
F66.25
tp222
a(F0
F104
F66.550003051757812
tp223
a(F0
F104
F66.849998474121094
tp224
a(F0
F104
F67.150001525878906
tp225
a(F0
F104
F67.449996948242188
tp226
a(F0
F104
F67.75
tp227
a(F0
F104
F68.050003051757812
tp228
a(F0
F104
F68.349998474121094
tp229
a(F0
F104
F68.650001525878906
tp230
a(F0
F104
F68.949996948242188
tp231
a(F0
F104
F69.25
tp232
a(F0
F104
F69.550003051757812
tp233
a(F0
F104
F69.849998474121094
tp234
a(F0
F104
F70.150001525878906
tp235
a(F0
F104
F70.449996948242188
tp236
a(F0
F104
F70.75
tp237
a(F0
F104
F71.050003051757812
tp238
a(F0
F104
F71.349998474121094
tp239
a(F0
F104
F71.650001525878906
tp240
a(F0
F104
F71.949996948242188
tp241
a(F0
F104
F72.25
tp242
a(F0
F104
F72.550003051757812
tp243
a(F0
F104
F72.849998474121094
tp244
a(F0
F104
F73.150001525878906
tp245
a(F0
F104
F73.449996948242188
tp246
a(F0
F104
F73.75
tp247
a(F0
F104
F74.050003051757812
tp248
a(F0
F104
F74.349998474121094
tp249
a(F0
F104
F74.650001525878906
tp250
a(F0
F104
F74.949996948242188
tp251
a(F0
F104
F75.25
tp252
a(F0
F104
F75.550003051757812
tp253
a(F0
F104
F75.849998474121094
tp254
a(F0
F104
F76.150001525878906
tp255
a(F0
F104
F76.449996948242188
tp256
a(F0
F104
F76.75
tp257
a(F0
F104
F77.050003051757812
tp258
a(F0
F104
F77.349998474121094
tp259
a(F0
F104
F77.650001525878906
tp260
a(F0
F104
F77.949996948242188
tp261
a(F0
F104
F78.25
tp262
a(F0
F104
F78.550003051757812
tp263
a(F0
F104
F78.849998474121094
tp264
a(F0
F104
F79.150001525878906
tp265
a(F0
F104
F79.449996948242188
tp266
a(F0
F104
F79.75
tp267
a(F0
F104
F80.050003051757812
tp268
a(F0
F104
F80.349998474121094
tp269
a(F0
F104
F80.650001525878906
tp270
a(F0
F104
F80.949996948242188
tp271
a(F0
F104
F81.25
tp272
a(F0
F104
F81.550003051757812
tp273
a(F0
F104
F81.849998474121094
tp274
a(F0
F104
F82.150001525878906
tp275
a(F0
F104
F82.449996948242188
tp276
a(F0
F104
F82.75
tp277
a(F0
F104
F83.050003051757812
tp278
a(F0
F104
F83.349998474121094
tp279
a(F0
F104
F83.650001525878906
tp280
a(F0
F104
F83.949996948242188
tp281
a(F0
F104
F84.25
tp282
a(F0
F104
F84.550003051757812
tp283
a(F0
F104
F84.849998474121094
tp284
a(F0
F104
F85.150001525878906
tp285
a(F0
F104
F85.449996948242188
tp286
a(F0
F104
F85.75
tp287
a(F0
F104
F86.050003051757812
tp288
a(F0
F104
F86.349998474121094
tp289
a(F0
F104
F86.650001525878906
tp290
a(F0
F104
F86.949996948242188
tp291
a(F0
F104
F87.25
tp292
a(F0
F104
F87.550003051757812
tp293
a(F0
F104
F87.849998474121094
tp294
a(F0
F104
F88.150001525878906
tp295
a(F0
F104
F88.449996948242188
tp296
a(F0
F104
F88.75
tp297
a(F0
F104
F89.050003051757812
tp298
a(F0
F104
F89.349998474121094
tp299
a(F0
F104
F89.650001525878906
tp300
a(F0
F104
F89.949996948242188
tp301
a(F0
F104
F90.25
tp302
a(F0
F104
F90.550003051757812
tp303
a(F0
F104
F90.849998474121094
tp304
a(F0
F104
F91.150001525878906
tp305
a(F0
F104
F91.449996948242188
tp306
a(F0
F104
F91.75
tp307
a(F0
F104
F92.050003051757812
tp308
a(F0
F104
F92.349998474121094
tp309
a(F0
F104
F92.650001525878906
tp310
a(F0
F104
F92.949996948242188
tp311
a(F0
F104
F93.25
tp312
a(F0
F104
F93.550003051757812
tp313
a(F0
F104
F93.849998474121094
tp314
a(F0
F104
F94.150001525878906
tp315
a(F0
F104
F94.449996948242188
tp316
a(F0
F104
F94.75
tp317
a(F0
F104
F95.050003051757812
tp318
a(F0
F104
F95.349998474121094
tp319
a(F0
F104
F95.650001525878906
tp320
a(F0
F104
F95.949996948242188
tp321
a(F0
F104
F96.25
tp322
a(F0
F104
F96.550003051757812
tp323
a(F0
F104
F96.849998474121094
tp324
a(F0
F104
F97.150001525878906
tp325
a(F0
F104
F97.449996948242188
tp326
a(F0
F104
F97.75
tp327
a(F0
F104
F98.050003051757812
tp328
a(F0
F104
F98.349998474121094
tp329
a(F0
F104
F98.650001525878906
tp330
a(F0
F104
F98.949996948242188
tp331
a(F0
F104
F99.25
tp332
a(F0
F104
F99.550003051757812
tp333
a(F0
F104
F99.849998474121094
tp334
a(F0
F104
F100.15000152587891
tp335
a(F0
F104
F100.44999694824219
tp336
a(F0
F104
F100.75
tp337
a(F0
F104
F101.05000305175781
tp338
a(F0
F104
F101.34999847412109
tp339
a(F0
F104
F101.65000152587891
tp340
a(F0
F104
F101.94999694824219
tp341
a(F0
F104
F102.25
tp342
a(F0
F104
F102.55000305175781
tp343
a(F0
F104
F102.84999847412109
tp344
a(F0
F104
F103.15000152587891
tp345
a(F0
F104
F103.44999694824219
tp346
a(F0
F104
F103.75
tp347
a(F0
F104
F104.05000305175781
tp348
a(F0
F104
F104.34999847412109
tp349
a(F0
F104
F104.65000152587891
tp350
a(F0
F104
F104.94999694824219
tp351
a(F0
F104
F105.25
tp352
a(F0
F104
F105.55000305175781
tp353
a(F0
F104
F105.84999847412109
tp354
a(F0
F104
F106.15000152587891
tp355
a(F0
F104
F106.44999694824219
tp356
a(F0
F104
F106.75
tp357
a(F0
F104
F107.05000305175781
tp358
a(F0
F104
F107.34999847412109
tp359
a(F0
F104
F107.65000152587891
tp360
a(F0
F104
F107.94999694824219
tp361
a(F0
F104
F108.25
tp362
a(F0
F104
F108.55000305175781
tp363
a(F0
F104
F108.84999847412109
tp364
a(F0
F104
F109.15000152587891
tp365
a(F0
F104
F109.44999694824219
tp366
a(F0
F104
F109.75
tp367
a(F0
F104
F110.05000305175781
tp368
a(F0
F104
F110.34999847412109
tp369
a(F0
F104
F110.65000152587891
tp370
a(F0
F104
F110.94999694824219
tp371
a(F0
F104
F111.25
tp372
a(F0
F104
F111.55000305175781
tp373
a(F0
F104
F111.84999847412109
tp374
a(F0
F104
F112.15000152587891
tp375
a(F0
F104
F112.44999694824219
tp376
a(F0
F104
F112.75
tp377
a(F0
F104
F113.05000305175781
tp378
a(F0
F104
F113.34999847412109
tp379
a(F0
F104
F113.65000152587891
tp380
a(F0
F104
F113.94999694824219
tp381
a(F0
F104
F114.25
tp382
a(F0
F104
F114.55000305175781
tp383
a(F0
F104
F114.84999847412109
tp384
a(F0
F104
F115.15000152587891
tp385
a(F0
F104
F115.44999694824219
tp386
a(F0
F104
F115.75
tp387
a(F0
F104
F116.05000305175781
tp388
a(F0
F104
F116.34999847412109
tp389
a(F0
F104
F116.65000152587891
tp390
a(F0
F104
F116.94999694824219
tp391
a(F0
F104
F117.25
tp392
a(F0
F104
F117.55000305175781
tp393
a(F0
F104
F117.84999847412109
tp394
a(F0
F104
F118.15000152587891
tp395
a(F0
F104
F118.44999694824219
tp396
a(F0
F104
F118.75
tp397
a(F0
F104
F119.05000305175781
tp398
a(F0
F104
F119.34999847412109
tp399
a(F0
F104
F119.65000152587891
tp400
a(F0
F104
F119.94999694824219
tp401
a(F0
F104
F120.25
tp402
a(F0
F104
F120.55000305175781
tp403
a(F0
F104
F120.84999847412109
tp404
a(F0
F104
F121.15000152587891
tp405
a(F0
F104
F121.44999694824219
tp406
a(F0
F104
F121.75
tp407
a(F0
F104
F122.05000305175781
tp408
a(F0
F104
F122.34999847412109
tp409
a(F0
F104
F122.65000152587891
tp410
a(F0
F104
F122.94999694824219
tp411
a(F0
F104
F123.25
tp412
a(F0
F104
F123.55000305175781
tp413
a(F0
F104
F123.84999847412109
tp414
a(F0
F104
F124.15000152587891
tp415
a(F0
F104
F124.44999694824219
tp416
a(F0
F104
F124.75
tp417
a(F0
F104
F125.05000305175781
tp418
a(F0
F104
F125.34999847412109
tp419
a(F0
F104
F125.65000152587891
tp420
a(F0
F104
F125.94999694824219
tp421
a(F0
F104
F126.25
tp422
a(F0
F104
F126.55000305175781
tp423
a(F0
F104
F126.84999847412109
tp424
a(F0
F104
F127.15000152587891
tp425
a(F0
F104
F127.44999694824219
tp426
a(F0
F104
F127.75
tp427
a(F0
F104
F128.05000305175781
tp428
a(F0
F104
F128.35000610351562
tp429
a(F0
F104
F128.64999389648438
tp430
a(F0
F104
F128.94999694824219
tp431
a(F0
F104
F129.25
tp432
a(F0
F104
F129.55000305175781
tp433
a(F0
F104
F129.85000610351562
tp434
a(F0
F104
F130.14999389648438
tp435
a(F0
F104
F130.44999694824219
tp436
a(F0
F104
F130.75
tp437
a(F0
F104
F131.05000305175781
tp438
a(F0
F104
F131.35000610351562
tp439
a(F0
F104
F131.64999389648438
tp440
a(F0
F104
F131.94999694824219
tp441
a(F0
F104
F132.25
tp442
a(F0
F104
F132.55000305175781
tp443
a(F0
F104
F132.85000610351562
tp444
a(F0
F104
F133.14999389648438
tp445
a(F0
F104
F133.44999694824219
tp446
a(F0
F104
F133.75
tp447
a(F0
F104
F134.05000305175781
tp448
a(F0
F104
F134.35000610351562
tp449
a(F0
F104
F134.64999389648438
tp450
a(F0
F104
F134.94999694824219
tp451
a(F0
F104
F135.25
tp452
a(F0
F104
F135.55000305175781
tp453
a(F0
F104
F135.85000610351562
tp454
a(F0
F104
F136.14999389648438
tp455
a(F0
F104
F136.44999694824219
tp456
a(F0
F104
F136.75
tp457
a(F0
F104
F137.05000305175781
tp458
a(F0
F104
F137.35000610351562
tp459
a(F0
F104
F137.64999389648438
tp460
a(F0
F104
F137.94999694824219
tp461
a(F0
F104
F138.25
tp462
a(F0
F104
F138.55000305175781
tp463
a(F0
F104
F138.85000610351562
tp464
a(F0
F104
F139.14999389648438
tp465
a(F0
F104
F139.44999694824219
tp466
a(F0
F104
F139.75
tp467
a(F0
F104
F140.05000305175781
tp468
a(F0
F104
F140.35000610351562
tp469
a(F0
F104
F140.64999389648438
tp470
a(F0
F104
F140.94999694824219
tp471
a(F0
F104
F141.25
tp472
a(F0
F104
F141.55000305175781
tp473
a(F0
F104
F141.85000610351562
tp474
a(F0
F104
F142.14999389648438
tp475
a(F0
F104
F142.44999694824219
tp476
a(F0
F104
F142.75
tp477
a(F0
F104
F143.05000305175781
tp478
a(F0
F104
F143.35000610351562
tp479
a(F0
F104
F143.64999389648438
tp480
a(F0
F104
F143.94999694824219
tp481
a(F0
F104
F144.25
tp482
a(F0
F104
F144.55000305175781
tp483
a(F0
F104
F144.85000610351562
tp484
a(F0
F104
F145.14999389648438
tp485
a(F0
F104
F145.44999694824219
tp486
a(F0
F104
F145.75
tp487
a(F0
F104
F146.05000305175781
tp488
a(F0
F104
F146.35000610351562
tp489
a(F0
F104
F146.64999389648438
tp490
a(F0
F104
F146.94999694824219
tp491
a(F0
F104
F147.25
tp492
a(F0
F104
F147.55000305175781
tp493
a(F0
F104
F147.85000610351562
tp494
a(F0
F104
F148.14999389648438
tp495
a(F0
F104
F148.44999694824219
tp496
a(F0
F104
F148.75
tp497
a(F0
F104
F149.05000305175781
tp498
a(F0
F104
F149.35000610351562
tp499
a(F0
F104
F149.64999389648438
tp500
a(F0
F104
F149.94999694824219
tp501
a(F0
F104
F150.25
tp502
a(F0
F104
F150.55000305175781
tp503
a(F0
F104
F150.85000610351562
tp504
a(F0
F104
F151.14999389648438
tp505
a(F0
F104
F151.44999694824219
tp506
a(F0
F104
F151.75
tp507
a(F0
F104
F152.05000305175781
tp508
a(F0
F104
F152.35000610351562
tp509
a(F0
F104
F152.64999389648438
tp510
a(F0
F104
F152.94999694824219
tp511
a(F0
F104
F153.25
tp512
a(F0
F104
F153.55000305175781
tp513
a(F0
F104
F153.85000610351562
tp514
a(F0
F104
F154.14999389648438
tp515
a(F0
F104
F154.44999694824219
tp516
a(F0
F104
F154.75
tp517
a(F0
F104
F155.05000305175781
tp518
a(F0
F104
F155.35000610351562
tp519
a(F0
F104
F155.64999389648438
tp520
a(F0
F104
F155.94999694824219
tp521
a(F0
F104
F156.25
tp522
a(F0
F104
F156.55000305175781
tp523
a(F0
F104
F156.85000610351562
tp524
a(F0
F104
F157.14999389648438
tp525
a(F0
F104
F157.44999694824219
tp526
a(F0
F104
F157.75
tp527
a(F0
F104
F158.05000305175781
tp528
a(F0
F104
F158.35000610351562
tp529
a(F0
F104
F158.64999389648438
tp530
a(F0
F104
F158.94999694824219
tp531
a(F0
F104
F159.25
tp532
a(F0
F104
F159.55000305175781
tp533
a(F0
F104
F159.85000610351562
tp534
a(F0
F104
F160.14999389648438
tp535
a(F0
F104
F160.44999694824219
tp536
a(F0
F104
F160.75
tp537
a(F0
F104
F161.05000305175781
tp538
a(F0
F104
F161.35000610351562
tp539
a(F0
F104
F161.64999389648438
tp540
a(F0
F104
F161.94999694824219
tp541
a(F0
F104
F162.25
tp542
a(F0
F104
F162.55000305175781
tp543
a(F0
F104
F162.85000610351562
tp544
a(F0
F104
F163.14999389648438
tp545
a(F0
F104
F163.44999694824219
tp546
a(F0
F104
F163.75
tp547
a(F0
F104
F164.05000305175781
tp548
a(F0
F104
F164.35000610351562
tp549
a(F0
F104
F164.64999389648438
tp550
a(F0
F104
F164.94999694824219
tp551
a(F0
F104
F165.25
tp552
a(F0
F104
F165.55000305175781
tp553
a(F0
F104
F165.85000610351562
tp554
a(F0
F104
F166.14999389648438
tp555
a(F0
F104
F166.44999694824219
tp556
a(F0
F104
F166.75
tp557
a(F0
F104
F167.05000305175781
tp558
a(F0
F104
F167.35000610351562
tp559
a(F0
F104
F167.64999389648438
tp560
a(F0
F104
F167.94999694824219
tp561
a(F0
F104
F168.25
tp562
a(F0
F104
F168.55000305175781
tp563
a(F0
F104
F168.85000610351562
tp564
a(F0
F104
F169.14999389648438
tp565
a(F0
F104
F169.44999694824219
tp566
a(F0
F104
F169.75
tp567
a(F0
F104
F170.05000305175781
tp568
a(F0
F104
F170.35000610351562
tp569
a(F0
F104
F170.64999389648438
tp570
a(F0
F104
F170.94999694824219
tp571
a(F0
F104
F171.25
tp572
a(F0
F104
F171.55000305175781
tp573
a(F0
F104
F171.85000610351562
tp574
a(F0
F104
F172.14999389648438
tp575
a(F0
F104
F172.44999694824219
tp576
a(F0
F104
F172.75
tp577
a(F0
F104
F173.05000305175781
tp578
a(F0
F104
F173.35000610351562
tp579
a(F0
F104
F173.64999389648438
tp580
a(F0
F104
F173.94999694824219
tp581
a(F0
F104
F174.25
tp582
a(F0
F104
F174.55000305175781
tp583
a(F0
F104
F174.85000610351562
tp584
a(F0
F104
F175.14999389648438
tp585
a(F0
F104
F175.44999694824219
tp586
a(F0
F104
F175.75
tp587
a(F0
F104
F176.05000305175781
tp588
a(F0
F104
F176.35000610351562
tp589
a(F0
F104
F176.64999389648438
tp590
a(F0
F104
F176.94999694824219
tp591
a(F0
F104
F177.25
tp592
a(F0
F104
F177.55000305175781
tp593
a(F0
F104
F177.85000610351562
tp594
a(F0
F104
F178.14999389648438
tp595
a(F0
F104
F178.44999694824219
tp596
a(F0
F104
F178.75
tp597
a(F0
F104
F179.05000305175781
tp598
a(F0
F104
F179.35000610351562
tp599
a(F0
F104
F179.64999389648438
tp600
a(F0
F104
F179.94999694824219
tp601
a(F0
F104
F180.25
tp602
a(F0
F104
F180.55000305175781
tp603
a(F0
F104
F180.85000610351562
tp604
a(F0
F104
F181.14999389648438
tp605
a(F0
F104
F181.44999694824219
tp606
a(F0
F104
F181.75
tp607
a(F0
F104
F182.05000305175781
tp608
a(F0
F104
F182.35000610351562
tp609
a(F0
F104
F182.64999389648438
tp610
a(F0
F104
F182.94999694824219
tp611
a(F0
F104
F183.25
tp612
a(F0
F104
F183.55000305175781
tp613
a(F0
F104
F183.85000610351562
tp614
a(F0
F104
F184.14999389648438
tp615
a(F0
F104
F184.44999694824219
tp616
a(F0
F104
F184.75
tp617
a(F0
F104
F185.05000305175781
tp618
a(F0
F104
F185.35000610351562
tp619
a(F0
F104
F185.64999389648438
tp620
a(F0
F104
F185.94999694824219
tp621
a(F0
F104
F186.25
tp622
a(F0
F104
F186.55000305175781
tp623
a(F0
F104
F186.85000610351562
tp624
a(F0
F104
F187.14999389648438
tp625
a(F0
F104
F187.44999694824219
tp626
a(F0
F104
F187.75
tp627
a(F0
F104
F188.05000305175781
tp628
a(F0
F104
F188.35000610351562
tp629
a(F0
F104
F188.64999389648438
tp630
a(F0
F104
F188.94999694824219
tp631
a(F0
F104
F189.25
tp632
a(F0
F104
F189.55000305175781
tp633
a(F0
F104
F189.85000610351562
tp634
a(F0
F104
F190.14999389648438
tp635
a(F0
F104
F190.44999694824219
tp636
a(F0
F104
F190.75
tp637
a(F0
F104
F191.05000305175781
tp638
a(F0
F104
F191.35000610351562
tp639
a(F0
F104
F191.64999389648438
tp640
a(F0
F104
F191.94999694824219
tp641
a(F0
F104
F192.25
tp642
a(F0
F104
F192.55000305175781
tp643
a(F0
F104
F192.85000610351562
tp644
a(F0
F104
F193.14999389648438
tp645
a(F0
F104
F193.44999694824219
tp646
a(F0
F104
F193.75
tp647
a(F0
F104
F194.05000305175781
tp648
a(F0
F104
F194.35000610351562
tp649
a(F0
F104
F194.64999389648438
tp650
a(F0
F104
F194.94999694824219
tp651
a(F0
F104
F195.25
tp652
a(F0
F104
F195.55000305175781
tp653
a(F0
F104
F195.85000610351562
tp654
a(F0
F104
F196.14999389648438
tp655
a(F0
F104
F196.44999694824219
tp656
a(F0
F104
F196.75
tp657
a(F0
F104
F197.05000305175781
tp658
a(F0
F104
F197.35000610351562
tp659
a(F0
F104
F197.64999389648438
tp660
a(F0
F104
F197.94999694824219
tp661
a(F0
F104
F198.25
tp662
a(F0
F104
F198.55000305175781
tp663
a(F0
F104
F198.85000610351562
tp664
a(F0
F104
F199.14999389648438
tp665
a(F0
F104
F199.44999694824219
tp666
a(F0
F104
F199.75
tp667
a(F0
F104
F200.05000305175781
tp668
a(F0
F104
F200.35000610351562
tp669
a(F0
F104
F200.64999389648438
tp670
a(F0
F104
F200.94999694824219
tp671
a(F0
F104
F201.25
tp672
a(F0
F104
F201.55000305175781
tp673
a(F0
F104
F201.85000610351562
tp674
a(F0
F104
F202.14999389648438
tp675
a(F0
F104
F202.44999694824219
tp676
a(F0
F104
F202.75
tp677
a(F0
F104
F203.05000305175781
tp678
a(F0
F104
F203.35000610351562
tp679
a(F0
F104
F203.64999389648438
tp680
a(F0
F104
F203.94999694824219
tp681
a(F0
F104
F204.25
tp682
a(F0
F104
F204.55000305175781
tp683
a(F0
F104
F204.85000610351562
tp684
a(F0
F104
F205.14999389648438
tp685
a(F0
F104
F205.44999694824219
tp686
a(F0
F104
F205.75
tp687
a(F0
F104
F206.05000305175781
tp688
a(F0
F104
F206.35000610351562
tp689
a(F0
F104
F206.64999389648438
tp690
a(F0
F104
F206.94999694824219
tp691
a(F0
F104
F207.25
tp692
a(F0
F104
F207.55000305175781
tp693
a(F0
F104
F207.85000610351562
tp694
a(F0
F104
F208.14999389648438
tp695
a(F0
F104
F208.44999694824219
tp696
a(F0
F104
F208.75
tp697
a(F0
F104
F209.05000305175781
tp698
a(F0
F104
F209.35000610351562
tp699
a(F0
F104
F209.64999389648438
tp700
a(F0
F104
F209.94999694824219
tp701
a(F0
F104
F210.25
tp702
a(F0
F104
F210.55000305175781
tp703
a(F0
F104
F210.85000610351562
tp704
a(F0
F104
F211.14999389648438
tp705
a(F0
F104
F211.44999694824219
tp706
a(F0
F104
F211.75
tp707
a(F0
F104
F212.05000305175781
tp708
a(F0
F104
F212.35000610351562
tp709
a(F0
F104
F212.64999389648438
tp710
a(F0
F104
F212.94999694824219
tp711
a(F0
F104
F213.25
tp712
a(F0
F104
F213.55000305175781
tp713
a(F0
F104
F213.85000610351562
tp714
a(F0
F104
F214.14999389648438
tp715
a(F0
F104
F214.44999694824219
tp716
a(F0
F104
F214.75
tp717
a(F0
F104
F215.05000305175781
tp718
a(F0
F104
F215.35000610351562
tp719
a(F0
F104
F215.64999389648438
tp720
a(F0
F104
F215.94999694824219
tp721
a(F0
F104
F216.25
tp722
a(F0
F104
F216.55000305175781
tp723
a(F0
F104
F216.85000610351562
tp724
a(F0
F104
F217.14999389648438
tp725
a(F0
F104
F217.44999694824219
tp726
a(F0
F104
F217.75
tp727
a(F0
F104
F218.05000305175781
tp728
a(F0
F104
F218.35000610351562
tp729
a(F0
F104
F218.64999389648438
tp730
a(F0
F104
F218.94999694824219
tp731
a(F0
F104
F219.25
tp732
a(F0
F104
F219.55000305175781
tp733
a(F0
F104
F219.85000610351562
tp734
a(F0
F104
F220.14999389648438
tp735
a(F0
F104
F220.44999694824219
tp736
a(F0
F104
F220.75
tp737
a(F0
F104
F221.05000305175781
tp738
a(F0
F104
F221.35000610351562
tp739
a(F0
F104
F221.64999389648438
tp740
a(F0
F104
F221.94999694824219
tp741
a(F0
F104
F222.25
tp742
a(F0
F104
F222.55000305175781
tp743
a(F0
F104
F222.85000610351562
tp744
a(F0
F104
F223.14999389648438
tp745
a(F0
F104
F223.44999694824219
tp746
a(F0
F104
F223.75
tp747
a(F0
F104
F224.05000305175781
tp748
a(F0
F104
F224.35000610351562
tp749
a(F0
F104
F224.64999389648438
tp750
a(F0
F104
F224.94999694824219
tp751
a(F0
F104
F225.25
tp752
a(F0
F104
F225.55000305175781
tp753
a(F0
F104
F225.85000610351562
tp754
a(F0
F104
F226.14999389648438
tp755
a(F0
F104
F226.44999694824219
tp756
a(F0
F104
F226.75
tp757
a(F0
F104
F227.05000305175781
tp758
a(F0
F104
F227.35000610351562
tp759
a(F0
F104
F227.64999389648438
tp760
a(F0
F104
F227.94999694824219
tp761
a(F0
F104
F228.25
tp762
a(F0
F104
F228.55000305175781
tp763
a(F0
F104
F228.85000610351562
tp764
a(F0
F104
F229.14999389648438
tp765
a(F0
F104
F229.44999694824219
tp766
a(F0
F104
F229.75
tp767
a(F0
F104
F230.05000305175781
tp768
a(F0
F104
F230.35000610351562
tp769
a(F0
F104
F230.64999389648438
tp770
a(F0
F104
F230.94999694824219
tp771
a(F0
F104
F231.25
tp772
a(F0
F104
F231.55000305175781
tp773
a(F0
F104
F231.85000610351562
tp774
a(F0
F104
F232.14999389648438
tp775
a(F0
F104
F232.44999694824219
tp776
a(F0
F104
F232.75
tp777
a(F0
F104
F233.05000305175781
tp778
a(F0
F104
F233.35000610351562
tp779
a(F0
F104
F233.64999389648438
tp780
a(F0
F104
F233.94999694824219
tp781
a(F0
F104
F234.25
tp782
a(F0
F104
F234.55000305175781
tp783
a(F0
F104
F234.85000610351562
tp784
a(F0
F104
F235.14999389648438
tp785
a(F0
F104
F235.44999694824219
tp786
a(F0
F104
F235.75
tp787
a(F0
F104
F236.05000305175781
tp788
a(F0
F104
F236.35000610351562
tp789
a(F0
F104
F236.64999389648438
tp790
a(F0
F104
F236.94999694824219
tp791
a(F0
F104
F237.25
tp792
a(F0
F104
F237.55000305175781
tp793
a(F0
F104
F237.85000610351562
tp794
a(F0
F104
F238.14999389648438
tp795
a(F0
F104
F238.44999694824219
tp796
a(F0
F104
F238.75
tp797
a(F0
F104
F239.05000305175781
tp798
a(F0
F104
F239.35000610351562
tp799
a(F0
F104
F239.64999389648438
tp800
a(F0
F104
F239.94999694824219
tp801
a(F0
F104
F240.25
tp802
a(F0
F104
F240.55000305175781
tp803
a(F0
F104
F240.85000610351562
tp804
a(F0
F104
F241.14999389648438
tp805
a(F0
F104
F241.44999694824219
tp806
a(F0
F104
F241.75
tp807
a(F0
F104
F242.05000305175781
tp808
a(F0
F104
F242.35000610351562
tp809
a(F0
F104
F242.64999389648438
tp810
a(F0
F104
F242.94999694824219
tp811
a(F0
F104
F243.25
tp812
a(F0
F104
F243.55000305175781
tp813
a(F0
F104
F243.85000610351562
tp814
a(F0
F104
F244.14999389648438
tp815
a(F0
F104
F244.44999694824219
tp816
a(F0
F104
F244.75
tp817
a(F0
F104
F245.05000305175781
tp818
a(F0
F104
F245.35000610351562
tp819
a(F0
F104
F245.64999389648438
tp820
a(F0
F104
F245.94999694824219
tp821
a(F0
F104
F246.25
tp822
a(F0
F104
F246.55000305175781
tp823
a(F0
F104
F246.85000610351562
tp824
a(F0
F104
F247.14999389648438
tp825
a(F0
F104
F247.44999694824219
tp826
a(F0
F104
F247.75
tp827
a(F0
F104
F248.05000305175781
tp828
a(F0
F104
F248.35000610351562
tp829
a(F0
F104
F248.64999389648438
tp830
a(F0
F104
F248.94999694824219
tp831
a(F0
F104
F249.25
tp832
a(F0
F104
F249.55000305175781
tp833
a(F0
F104
F249.85000610351562
tp834
a(F0
F104
F250.14999389648438
tp835
a(F0
F104
F250.44999694824219
tp836
a(F0
F104
F250.75
tp837
a(F0
F104
F251.05000305175781
tp838
a(F0
F104
F251.35000610351562
tp839
a(F0
F104
F251.64999389648438
tp840
a(F0
F104
F251.94999694824219
tp841
a(F0
F104
F252.25
tp842
a(F0
F104
F252.55000305175781
tp843
a(F0
F104
F252.85000610351562
tp844
a(F0
F104
F253.14999389648438
tp845
a(F0
F104
F253.44999694824219
tp846
a(F0
F104
F253.75
tp847
a(F0
F104
F254.05000305175781
tp848
a(F0
F104
F254.35000610351562
tp849
a(F0
F104
F254.64999389648438
tp850
a(F0
F104
F254.94999694824219
tp851
a(F0
F104
F255.25
tp852
a(F0
F104
F255.55000305175781
tp853
a(F0
F104
F255.85000610351562
tp854
a(F0
F104
F256.14999389648438
tp855
a(F0
F104
F256.45001220703125
tp856
a(F0
F104
F256.75
tp857
a(F0
F104
F257.04998779296875
tp858
a(F0
F104
F257.35000610351562
tp859
a(F0
F104
F257.64999389648438
tp860
a(F0
F104
F257.95001220703125
tp861
a(F0
F104
F258.25
tp862
a(F0
F104
F258.54998779296875
tp863
a(F0
F104
F258.85000610351562
tp864
a(F0
F104
F259.14999389648438
tp865
a(F0
F104
F259.45001220703125
tp866
a(F0
F104
F259.75
tp867
a(F0
F104
F260.04998779296875
tp868
a(F0
F104
F260.35000610351562
tp869
a(F0
F104
F260.64999389648438
tp870
a(F0
F104
F260.95001220703125
tp871
a(F0
F104
F261.25
tp872
a(F0
F104
F261.54998779296875
tp873
a(F0
F104
F261.85000610351562
tp874
a(F0
F104
F262.14999389648438
tp875
a(F0
F104
F262.45001220703125
tp876
a(F0
F104
F262.75
tp877
a(F0
F104
F263.04998779296875
tp878
a(F0
F104
F263.35000610351562
tp879
a(F0
F104
F263.64999389648438
tp880
a(F0
F104
F263.95001220703125
tp881
a(F0
F104
F264.25
tp882
a(F0
F104
F264.54998779296875
tp883
a(F0
F104
F264.85000610351562
tp884
a(F0
F104
F265.14999389648438
tp885
a(F0
F104
F265.45001220703125
tp886
a(F0
F104
F265.75
tp887
a(F0
F104
F266.04998779296875
tp888
a(F0
F104
F266.35000610351562
tp889
a(F0
F104
F266.64999389648438
tp890
a(F0
F104
F266.95001220703125
tp891
a(F0
F104
F267.25
tp892
a(F0
F104
F267.54998779296875
tp893
a(F0
F104
F267.85000610351562
tp894
a(F0
F104
F268.14999389648438
tp895
a(F0
F104
F268.45001220703125
tp896
a(F0
F104
F268.75
tp897
a(F0
F104
F269.04998779296875
tp898
a(F0
F104
F269.35000610351562
tp899
a(F0
F104
F269.64999389648438
tp900
a(F0
F104
F269.95001220703125
tp901
a(F0
F104
F270.25
tp902
a(F0
F104
F270.54998779296875
tp903
a(F0
F104
F270.85000610351562
tp904
a(F0
F104
F271.14999389648438
tp905
a(F0
F104
F271.45001220703125
tp906
a(F0
F104
F271.75
tp907
a(F0
F104
F272.04998779296875
tp908
a(F0
F104
F272.35000610351562
tp909
a(F0
F104
F272.64999389648438
tp910
a(F0
F104
F272.95001220703125
tp911
a(F0
F104
F273.25
tp912
a(F0
F104
F273.54998779296875
tp913
a(F0
F104
F273.85000610351562
tp914
a(F0
F104
F274.14999389648438
tp915
a(F0
F104
F274.45001220703125
tp916
a(F0
F104
F274.75
tp917
a(F0
F104
F275.04998779296875
tp918
a(F0
F104
F275.35000610351562
tp919
a(F0
F104
F275.64999389648438
tp920
a(F0
F104
F275.95001220703125
tp921
a(F0
F104
F276.25
tp922
a(F0
F104
F276.54998779296875
tp923
a(F0
F104
F276.85000610351562
tp924
a(F0
F104
F277.14999389648438
tp925
a(F0
F104
F277.45001220703125
tp926
a(F0
F104
F277.75
tp927
a(F0
F104
F278.04998779296875
tp928
a(F0
F104
F278.35000610351562
tp929
a(F0
F104
F278.64999389648438
tp930
a(F0
F104
F278.95001220703125
tp931
a(F0
F104
F279.25
tp932
a(F0
F104
F279.54998779296875
tp933
a(F0
F104
F279.85000610351562
tp934
a(F0
F104
F280.14999389648438
tp935
a(F0
F104
F280.45001220703125
tp936
a(F0
F104
F280.75
tp937
a(F0
F104
F281.04998779296875
tp938
a(F0
F104
F281.35000610351562
tp939
a(F0
F104
F281.64999389648438
tp940
a(F0
F104
F281.95001220703125
tp941
a(F0
F104
F282.25
tp942
a(F0
F104
F282.54998779296875
tp943
a(F0
F104
F282.85000610351562
tp944
a(F0
F104
F283.14999389648438
tp945
a(F0
F104
F283.45001220703125
tp946
a(F0
F104
F283.75
tp947
a(F0
F104
F284.04998779296875
tp948
a(F0
F104
F284.35000610351562
tp949
a(F0
F104
F284.64999389648438
tp950
a(F0
F104
F284.95001220703125
tp951
a(F0
F104
F285.25
tp952
a(F0
F104
F285.54998779296875
tp953
a(F0
F104
F285.85000610351562
tp954
a(F0
F104
F286.14999389648438
tp955
a(F0
F104
F286.45001220703125
tp956
a(F0
F104
F286.75
tp957
a(F0
F104
F287.04998779296875
tp958
a(F0
F104
F287.35000610351562
tp959
a(F0
F104
F287.64999389648438
tp960
a(F0
F104
F287.95001220703125
tp961
a(F0
F104
F288.25
tp962
a(F0
F104
F288.54998779296875
tp963
a(F0
F104
F288.85000610351562
tp964
a(F0
F104
F289.14999389648438
tp965
a(F0
F104
F289.45001220703125
tp966
a(F0
F104
F289.75
tp967
a(F0
F104
F290.04998779296875
tp968
a(F0
F104
F290.35000610351562
tp969
a(F0
F104
F290.64999389648438
tp970
a(F0
F104
F290.95001220703125
tp971
a(F0
F104
F291.25
tp972
a(F0
F104
F291.54998779296875
tp973
a(F0
F104
F291.85000610351562
tp974
a(F0
F104
F292.14999389648438
tp975
a(F0
F104
F292.45001220703125
tp976
a(F0
F104
F292.75
tp977
a(F0
F104
F293.04998779296875
tp978
a(F0
F104
F293.35000610351562
tp979
a(F0
F104
F293.64999389648438
tp980
a(F0
F104
F293.95001220703125
tp981
a(F0
F104
F294.25
tp982
a(F0
F104
F294.54998779296875
tp983
a(F0
F104
F294.85000610351562
tp984
a(F0
F104
F295.14999389648438
tp985
a(F0
F104
F295.45001220703125
tp986
a(F0
F104
F295.75
tp987
a(F0
F104
F296.04998779296875
tp988
a(F0
F104
F296.35000610351562
tp989
a(F0
F104
F296.64999389648438
tp990
a(F0
F104
F296.95001220703125
tp991
a(F0
F104
F297.25
tp992
a(F0
F104
F297.54998779296875
tp993
a(F0
F104
F297.85000610351562
tp994
a(F0
F104
F298.14999389648438
tp995
a(F0
F104
F298.45001220703125
tp996
a(F0
F104
F298.75
tp997
a(F0
F104
F299.04998779296875
tp998
a(F0
F104
F299.35000610351562
tp999
a(F0
F104
F299.64999389648438
tp1000
a(F0
F104
F299.95001220703125
tp1001
a(F0
F104
F300.25
tp1002
a(F0
F104
F300.54998779296875
tp1003
a(F0
F104
F300.85000610351562
tp1004
a(F0
F104
F301.14999389648438
tp1005
a(F0
F104
F301.45001220703125
tp1006
a(F0
F104
F301.75
tp1007
a(F0
F104
F302.04998779296875
tp1008
a(F0
F104
F302.35000610351562
tp1009
a(F0
F104
F302.64999389648438
tp1010
a(F0
F104
F302.95001220703125
tp1011
a(F0
F104
F303.25
tp1012
a(F0
F104
F303.54998779296875
tp1013
a(F0
F104
F303.85000610351562
tp1014
a(F0
F104
F304.14999389648438
tp1015
a(F0
F104
F304.45001220703125
tp1016
a(F0
F104
F304.75
tp1017
a(F0
F104
F305.04998779296875
tp1018
a(F0
F104
F305.35000610351562
tp1019
a(F0
F104
F305.64999389648438
tp1020
a(F0
F104
F305.95001220703125
tp1021
a(F0
F104
F306.25
tp1022
a(F0
F104
F306.54998779296875
tp1023
a(F0
F104
F306.85000610351562
tp1024
a(F0
F104
F307.14999389648438
tp1025
a(F0
F104
F307.45001220703125
tp1026
a(F0
F104
F307.75
tp1027
a(F0
F104
F308.04998779296875
tp1028
a(F0
F104
F308.35000610351562
tp1029
a(F0
F104
F308.64999389648438
tp1030
a(F0
F104
F308.95001220703125
tp1031
a(F0
F104
F309.25
tp1032
a(F0
F104
F309.54998779296875
tp1033
a(F0
F104
F309.85000610351562
tp1034
a(F0
F104
F310.14999389648438
tp1035
a(F0
F104
F310.45001220703125
tp1036
a(F0
F104
F310.75
tp1037
a(F0
F104
F311.04998779296875
tp1038
a(F0
F104
F311.35000610351562
tp1039
a(F0
F104
F311.64999389648438
tp1040
a(F0
F104
F311.95001220703125
tp1041
a(F0
F104
F312.25
tp1042
a(F0
F104
F312.54998779296875
tp1043
a(F0
F104
F312.85000610351562
tp1044
a(F0
F104
F313.14999389648438
tp1045
a(F0
F104
F313.45001220703125
tp1046
a(F0
F104
F313.75
tp1047
a(F0
F104
F314.04998779296875
tp1048
a(F0
F104
F314.35000610351562
tp1049
a(F0
F104
F314.64999389648438
tp1050
a(F0
F104
F314.95001220703125
tp1051
a(F0
F104
F315.25
tp1052
a(F0
F104
F315.54998779296875
tp1053
a(F0
F104
F315.85000610351562
tp1054
a(F0
F104
F316.14999389648438
tp1055
a(F0
F104
F316.45001220703125
tp1056
a(F0
F104
F316.75
tp1057
a(F0
F104
F317.04998779296875
tp1058
a(F0
F104
F317.35000610351562
tp1059
a(F0
F104
F317.64999389648438
tp1060
a(F0
F104
F317.95001220703125
tp1061
a(F0
F104
F318.25
tp1062
a(F0
F104
F318.54998779296875
tp1063
a(F0
F104
F318.85000610351562
tp1064
a(F0
F104
F319.14999389648438
tp1065
a(F0
F104
F319.45001220703125
tp1066
a(F0
F104
F319.75
tp1067
a(F0
F104
F320.04998779296875
tp1068
a(F0
F104
F320.35000610351562
tp1069
a(F0
F104
F320.64999389648438
tp1070
a(F0
F104
F320.95001220703125
tp1071
a(F0
F104
F321.25
tp1072
a(F0
F104
F321.54998779296875
tp1073
a(F0
F104
F321.85000610351562
tp1074
a(F0
F104
F322.14999389648438
tp1075
a(F0
F104
F322.45001220703125
tp1076
a(F0
F104
F322.75
tp1077
a(F0
F104
F323.04998779296875
tp1078
a(F0
F104
F323.35000610351562
tp1079
a(F0
F104
F323.64999389648438
tp1080
a(F0
F104
F323.95001220703125
tp1081
a(F0
F104
F324.25
tp1082
a(F0
F104
F324.54998779296875
tp1083
a(F0
F104
F324.85000610351562
tp1084
a(F0
F104
F325.14999389648438
tp1085
a(F0
F104
F325.45001220703125
tp1086
a(F0
F104
F325.75
tp1087
a(F0
F104
F326.04998779296875
tp1088
a(F0
F104
F326.35000610351562
tp1089
a(F0
F104
F326.64999389648438
tp1090
a(F0
F104
F326.95001220703125
tp1091
a(F0
F104
F327.25
tp1092
a(F0
F104
F327.54998779296875
tp1093
a(F0
F104
F327.85000610351562
tp1094
a(F0
F104
F328.14999389648438
tp1095
a(F0
F104
F328.45001220703125
tp1096
a(F0
F104
F328.75
tp1097
a(F0
F104
F329.04998779296875
tp1098
a(F0
F104
F329.35000610351562
tp1099
a(F0
F104
F329.64999389648438
tp1100
a(F0
F104
F329.95001220703125
tp1101
a(F0
F104
F330.25
tp1102
a(F0
F104
F330.54998779296875
tp1103
a(F0
F104
F330.85000610351562
tp1104
a(F0
F104
F331.14999389648438
tp1105
a(F0
F104
F331.45001220703125
tp1106
a(F0
F104
F331.75
tp1107
a(F0
F104
F332.04998779296875
tp1108
a(F0
F104
F332.35000610351562
tp1109
a(F0
F104
F332.64999389648438
tp1110
a(F0
F104
F332.95001220703125
tp1111
a(F0
F104
F333.25
tp1112
a(F0
F104
F333.54998779296875
tp1113
a(F0
F104
F333.85000610351562
tp1114
a(F0
F104
F334.14999389648438
tp1115
a(F0
F104
F334.45001220703125
tp1116
a(F0
F104
F334.75
tp1117
a(F0
F104
F335.04998779296875
tp1118
a(F0
F104
F335.35000610351562
tp1119
a(F0
F104
F335.64999389648438
tp1120
a(F0
F104
F335.95001220703125
tp1121
a(F0
F104
F336.25
tp1122
a(F0
F104
F336.54998779296875
tp1123
a(F0
F104
F336.85000610351562
tp1124
a(F0
F104
F337.14999389648438
tp1125
a(F0
F104
F337.45001220703125
tp1126
a(F0
F104
F337.75
tp1127
a(F0
F104
F338.04998779296875
tp1128
a(F0
F104
F338.35000610351562
tp1129
a(F0
F104
F338.64999389648438
tp1130
a(F0
F104
F338.95001220703125
tp1131
a(F0
F104
F339.25
tp1132
a(F0
F104
F339.54998779296875
tp1133
a(F0
F104
F339.85000610351562
tp1134
a(F0
F104
F340.14999389648438
tp1135
a(F0
F104
F340.45001220703125
tp1136
a(F0
F104
F340.75
tp1137
a(F0
F104
F341.04998779296875
tp1138
a(F0
F104
F341.35000610351562
tp1139
a(F0
F104
F341.64999389648438
tp1140
a(F0
F104
F341.95001220703125
tp1141
a(F0
F104
F342.25
tp1142
a(F0
F104
F342.54998779296875
tp1143
a(F0
F104
F342.85000610351562
tp1144
a(F0
F104
F343.14999389648438
tp1145
a(F0
F104
F343.45001220703125
tp1146
a(F0
F104
F343.75
tp1147
a(F0
F104
F344.04998779296875
tp1148
a(F0
F104
F344.35000610351562
tp1149
a(F0
F104
F344.64999389648438
tp1150
a(F0
F104
F344.95001220703125
tp1151
a(F0
F104
F345.25
tp1152
a(F0
F104
F345.54998779296875
tp1153
a(F0
F104
F345.85000610351562
tp1154
a(F0
F104
F346.14999389648438
tp1155
a(F0
F104
F346.45001220703125
tp1156
a(F0
F104
F346.75
tp1157
a(F0
F104
F347.04998779296875
tp1158
a(F0
F104
F347.35000610351562
tp1159
a(F0
F104
F347.64999389648438
tp1160
a(F0
F104
F347.95001220703125
tp1161
a(F0
F104
F348.25
tp1162
a(F0
F104
F348.54998779296875
tp1163
a(F0
F104
F348.85000610351562
tp1164
a(F0
F104
F349.14999389648438
tp1165
a(F0
F104
F349.45001220703125
tp1166
a(F0
F104
F349.75
tp1167
a(F0
F104
F350.04998779296875
tp1168
a(F0
F104
F350.35000610351562
tp1169
a(F0
F104
F350.64999389648438
tp1170
a(F0
F104
F350.95001220703125
tp1171
a(F0
F104
F351.25
tp1172
a(F0
F104
F351.54998779296875
tp1173
a(F0
F104
F351.85000610351562
tp1174
a(F0
F104
F352.14999389648438
tp1175
a(F0
F104
F352.45001220703125
tp1176
a(F0
F104
F352.75
tp1177
a(F0
F104
F353.04998779296875
tp1178
a(F0
F104
F353.35000610351562
tp1179
a(F0
F104
F353.64999389648438
tp1180
a(F0
F104
F353.95001220703125
tp1181
a(F0
F104
F354.25
tp1182
a(F0
F104
F354.54998779296875
tp1183
a(F0
F104
F354.85000610351562
tp1184
a(F0
F104
F355.14999389648438
tp1185
a(F0
F104
F355.45001220703125
tp1186
a(F0
F104
F355.75
tp1187
a(F0
F104
F356.04998779296875
tp1188
a(F0
F104
F356.35000610351562
tp1189
a(F0
F104
F356.64999389648438
tp1190
a(F0
F104
F356.95001220703125
tp1191
a(F0
F104
F357.25
tp1192
a(F0
F104
F357.54998779296875
tp1193
a(F0
F104
F357.85000610351562
tp1194
a(F0
F104
F358.14999389648438
tp1195
a(F0
F104
F358.45001220703125
tp1196
a(F0
F104
F358.75
tp1197
a(F0
F104
F359.04998779296875
tp1198
a(F0
F104
F359.35000610351562
tp1199
a(F0
F104
F359.64999389648438
tp1200
a(F0
F104
F359.95001220703125
tp1201
a(F0
F104
F360.25
tp1202
a(F0
F104
F360.54998779296875
tp1203
a(F0
F104
F360.85000610351562
tp1204
a(F0
F104
F361.14999389648438
tp1205
a(F0
F104
F361.45001220703125
tp1206
a(F0
F104
F361.75
tp1207
a(F0
F104
F362.04998779296875
tp1208
a(F0
F104
F362.35000610351562
tp1209
a(F0
F104
F362.64999389648438
tp1210
a(F0
F104
F362.95001220703125
tp1211
a(F0
F104
F363.25
tp1212
a(F0
F104
F363.54998779296875
tp1213
a(F0
F104
F363.85000610351562
tp1214
a(F0
F104
F364.14999389648438
tp1215
a(F0
F104
F364.45001220703125
tp1216
a(F0
F104
F364.75
tp1217
a(F0
F104
F365.04998779296875
tp1218
a(F0
F104
F365.35000610351562
tp1219
a(F0
F104
F365.64999389648438
tp1220
a(F0
F104
F365.95001220703125
tp1221
a(F0
F104
F366.25
tp1222
a(F0
F104
F366.54998779296875
tp1223
a(F0
F104
F366.85000610351562
tp1224
a(F0
F104
F367.14999389648438
tp1225
a(F0
F104
F367.45001220703125
tp1226
a(F0
F104
F367.75
tp1227
a(F0
F104
F368.04998779296875
tp1228
a(F0
F104
F368.35000610351562
tp1229
a(F0
F104
F368.64999389648438
tp1230
a(F0
F104
F368.95001220703125
tp1231
a(F0
F104
F369.25
tp1232
a(F0
F104
F369.54998779296875
tp1233
a(F0
F104
F369.85000610351562
tp1234
a(F0
F104
F370.14999389648438
tp1235
a(F0
F104
F370.45001220703125
tp1236
a(F0
F104
F370.75
tp1237
a(F0
F104
F371.04998779296875
tp1238
a(F0
F104
F371.35000610351562
tp1239
a(F0
F104
F371.64999389648438
tp1240
a(F0
F104
F371.95001220703125
tp1241
a(F0
F104
F372.25
tp1242
a(F0
F104
F372.54998779296875
tp1243
a(F0
F104
F372.85000610351562
tp1244
a(F0
F104
F373.14999389648438
tp1245
a(F0
F104
F373.45001220703125
tp1246
a(F0
F104
F373.75
tp1247
a(F0
F104
F374.04998779296875
tp1248
a(F0
F104
F374.35000610351562
tp1249
a(F0
F104
F374.64999389648438
tp1250
a(F0
F104
F374.95001220703125
tp1251
a(F0
F104
F375.25
tp1252
a(F0
F104
F375.54998779296875
tp1253
a(F0
F104
F375.85000610351562
tp1254
a(F0
F104
F376.14999389648438
tp1255
a(F0
F104
F376.45001220703125
tp1256
a(F0
F104
F376.75
tp1257
a(F0
F104
F377.04998779296875
tp1258
a(F0
F104
F377.35000610351562
tp1259
a(F0
F104
F377.64999389648438
tp1260
a(F0
F104
F377.95001220703125
tp1261
a(F0
F104
F378.25
tp1262
a(F0
F104
F378.54998779296875
tp1263
a(F0
F104
F378.85000610351562
tp1264
a(F0
F104
F379.14999389648438
tp1265
a(F0
F104
F379.45001220703125
tp1266
a(F0
F104
F379.75
tp1267
a(F0
F104
F380.04998779296875
tp1268
a(F0
F104
F380.35000610351562
tp1269
a(F0
F104
F380.64999389648438
tp1270
a(F0
F104
F380.95001220703125
tp1271
a(F0
F104
F381.25
tp1272
a(F0
F104
F381.54998779296875
tp1273
a(F0
F104
F381.85000610351562
tp1274
a(F0
F104
F382.14999389648438
tp1275
a(F0
F104
F382.45001220703125
tp1276
a(F0
F104
F382.75
tp1277
a(F0
F104
F383.04998779296875
tp1278
a(F0
F104
F383.35000610351562
tp1279
a(F0
F104
F383.64999389648438
tp1280
a(F0
F104
F383.95001220703125
tp1281
a(F0
F104
F384.25
tp1282
a(F0
F104
F384.54998779296875
tp1283
a(F0
F104
F384.85000610351562
tp1284
a(F0
F104
F385.14999389648438
tp1285
a(F0
F104
F385.45001220703125
tp1286
a(F0
F104
F385.75
tp1287
a(F0
F104
F386.04998779296875
tp1288
a(F0
F104
F386.35000610351562
tp1289
a(F0
F104
F386.64999389648438
tp1290
a(F0
F104
F386.95001220703125
tp1291
a(F0
F104
F387.25
tp1292
a(F0
F104
F387.54998779296875
tp1293
a(F0
F104
F387.85000610351562
tp1294
a(F0
F104
F388.14999389648438
tp1295
a(F0
F104
F388.45001220703125
tp1296
a(F0
F104
F388.75
tp1297
a(F0
F104
F389.04998779296875
tp1298
a(F0
F104
F389.35000610351562
tp1299
a(F0
F104
F389.64999389648438
tp1300
a(F0
F104
F389.95001220703125
tp1301
a(F0
F104
F390.25
tp1302
a(F0
F104
F390.54998779296875
tp1303
a(F0
F104
F390.85000610351562
tp1304
a(F0
F104
F391.14999389648438
tp1305
a(F0
F104
F391.45001220703125
tp1306
a(F0
F104
F391.75
tp1307
a(F0
F104
F392.04998779296875
tp1308
a(F0
F104
F392.35000610351562
tp1309
a(F0
F104
F392.64999389648438
tp1310
a(F0
F104
F392.95001220703125
tp1311
a(F0
F104
F393.25
tp1312
a(F0
F104
F393.54998779296875
tp1313
a(F0
F104
F393.85000610351562
tp1314
a(F0
F104
F394.14999389648438
tp1315
a(F0
F104
F394.45001220703125
tp1316
a(F0
F104
F394.75
tp1317
a(F0
F104
F395.04998779296875
tp1318
a(F0
F104
F395.35000610351562
tp1319
a(F0
F104
F395.64999389648438
tp1320
a(F0
F104
F395.95001220703125
tp1321
a(F0
F104
F396.25
tp1322
a(F0
F104
F396.54998779296875
tp1323
a(F0
F104
F396.85000610351562
tp1324
a(F0
F104
F397.14999389648438
tp1325
a(F0
F104
F397.45001220703125
tp1326
a(F0
F104
F397.75
tp1327
a(F0
F104
F398.04998779296875
tp1328
a(F0
F104
F398.35000610351562
tp1329
a(F0
F104
F398.64999389648438
tp1330
a(F0
F104
F398.95001220703125
tp1331
a(F0
F104
F399.25
tp1332
a(F0
F104
F399.54998779296875
tp1333
a(F0
F104
F399.85000610351562
tp1334
a(F0
F104
F400.14999389648438
tp1335
a(F0
F104
F400.45001220703125
tp1336
a(F0
F104
F400.75
tp1337
a(F0
F104
F401.04998779296875
tp1338
a(F0
F104
F401.35000610351562
tp1339
a(F0
F104
F401.64999389648438
tp1340
a(F0
F104
F401.95001220703125
tp1341
a(F0
F104
F402.25
tp1342
a(F0
F104
F402.54998779296875
tp1343
a(F0
F104
F402.85000610351562
tp1344
a(F0
F104
F403.14999389648438
tp1345
a(F0
F104
F403.45001220703125
tp1346
a(F0
F104
F403.75
tp1347
a(F0
F104
F404.04998779296875
tp1348
a(F0
F104
F404.35000610351562
tp1349
a(F0
F104
F404.64999389648438
tp1350
a(F0
F104
F404.95001220703125
tp1351
a(F0
F104
F405.25
tp1352
a(F0
F104
F405.54998779296875
tp1353
a(F0
F104
F405.85000610351562
tp1354
a(F0
F104
F406.14999389648438
tp1355
a(F0
F104
F406.45001220703125
tp1356
a(F0
F104
F406.75
tp1357
a(F0
F104
F407.04998779296875
tp1358
a(F0
F104
F407.35000610351562
tp1359
a(F0
F104
F407.64999389648438
tp1360
a(F0
F104
F407.95001220703125
tp1361
a(F0
F104
F408.25
tp1362
a(F0
F104
F408.54998779296875
tp1363
a(F0
F104
F408.85000610351562
tp1364
a(F0
F104
F409.14999389648438
tp1365
a(F0
F104
F409.45001220703125
tp1366
a(F0
F104
F409.75
tp1367
a(F0
F104
F410.04998779296875
tp1368
a(F0
F104
F410.35000610351562
tp1369
a(F0
F104
F410.64999389648438
tp1370
a(F0
F104
F410.95001220703125
tp1371
a(F0
F104
F411.25
tp1372
a(F0
F104
F411.54998779296875
tp1373
a(F0
F104
F411.85000610351562
tp1374
a(F0
F104
F412.14999389648438
tp1375
a(F0
F104
F412.45001220703125
tp1376
a(F0
F104
F412.75
tp1377
a(F0
F104
F413.04998779296875
tp1378
a(F0
F104
F413.35000610351562
tp1379
a(F0
F104
F413.64999389648438
tp1380
a(F0
F104
F413.95001220703125
tp1381
a(F0
F104
F414.25
tp1382
a(F0
F104
F414.54998779296875
tp1383
a(F0
F104
F414.85000610351562
tp1384
a(F0
F104
F415.14999389648438
tp1385
a(F0
F104
F415.45001220703125
tp1386
a(F0
F104
F415.75
tp1387
a(F0
F104
F416.04998779296875
tp1388
a(F0
F104
F416.35000610351562
tp1389
a(F0
F104
F416.64999389648438
tp1390
a(F0
F104
F416.95001220703125
tp1391
a(F0
F104
F417.25
tp1392
a(F0
F104
F417.54998779296875
tp1393
a(F0
F104
F417.85000610351562
tp1394
a(F0
F104
F418.14999389648438
tp1395
a(F0
F104
F418.45001220703125
tp1396
a(F0
F104
F418.75
tp1397
a(F0
F104
F419.04998779296875
tp1398
a(F0
F104
F419.35000610351562
tp1399
a(F0
F104
F419.64999389648438
tp1400
a(F0
F104
F419.95001220703125
tp1401
a(F0
F104
F420.25
tp1402
a(F0
F104
F420.54998779296875
tp1403
a(F0
F104
F420.85000610351562
tp1404
a(F0
F104
F421.14999389648438
tp1405
a(F0
F104
F421.45001220703125
tp1406
a(F0
F104
F421.75
tp1407
a(F0
F104
F422.04998779296875
tp1408
a(F0
F104
F422.35000610351562
tp1409
a(F0
F104
F422.64999389648438
tp1410
a(F0
F104
F422.95001220703125
tp1411
a(F0
F104
F423.25
tp1412
a(F0
F104
F423.54998779296875
tp1413
a(F0
F104
F423.85000610351562
tp1414
a(F0
F104
F424.14999389648438
tp1415
a(F0
F104
F424.45001220703125
tp1416
a(F0
F104
F424.75
tp1417
a(F0
F104
F425.04998779296875
tp1418
a(F0
F104
F425.35000610351562
tp1419
a(F0
F104
F425.64999389648438
tp1420
a(F0
F104
F425.95001220703125
tp1421
a(F0
F104
F426.25
tp1422
a(F0
F104
F426.54998779296875
tp1423
a(F0
F104
F426.85000610351562
tp1424
a(F0
F104
F427.14999389648438
tp1425
a(F0
F104
F427.45001220703125
tp1426
a(F0
F104
F427.75
tp1427
a(F0
F104
F428.04998779296875
tp1428
a(F0
F104
F428.35000610351562
tp1429
a(F0
F104
F428.64999389648438
tp1430
a(F0
F104
F428.95001220703125
tp1431
a(F0
F104
F429.25
tp1432
a(F0
F104
F429.54998779296875
tp1433
a(F0
F104
F429.85000610351562
tp1434
a(F0
F104
F430.14999389648438
tp1435
a(F0
F104
F430.45001220703125
tp1436
a(F0
F104
F430.75
tp1437
a(F0
F104
F431.04998779296875
tp1438
a(F0
F104
F431.35000610351562
tp1439
a(F0
F104
F431.64999389648438
tp1440
a(F0
F104
F431.95001220703125
tp1441
a(F0
F104
F432.25
tp1442
a(F0
F104
F432.54998779296875
tp1443
a(F0
F104
F432.85000610351562
tp1444
a(F0
F104
F433.14999389648438
tp1445
a(F0
F104
F433.45001220703125
tp1446
a(F0
F104
F433.75
tp1447
a(F0
F104
F434.04998779296875
tp1448
a(F0
F104
F434.35000610351562
tp1449
a(F0
F104
F434.64999389648438
tp1450
a(F0
F104
F434.95001220703125
tp1451
a(F0
F104
F435.25
tp1452
a(F0
F104
F435.54998779296875
tp1453
a(F0
F104
F435.85000610351562
tp1454
a(F0
F104
F436.14999389648438
tp1455
a(F0
F104
F436.45001220703125
tp1456
a(F0
F104
F436.75
tp1457
a(F0
F104
F437.04998779296875
tp1458
a(F0
F104
F437.35000610351562
tp1459
a(F0
F104
F437.64999389648438
tp1460
a(F0
F104
F437.95001220703125
tp1461
a(F0
F104
F438.25
tp1462
a(F0
F104
F438.54998779296875
tp1463
a(F0
F104
F438.85000610351562
tp1464
a(F0
F104
F439.14999389648438
tp1465
a(F0
F104
F439.45001220703125
tp1466
a(F0
F104
F439.75
tp1467
a(F0
F104
F440.04998779296875
tp1468
a(F0
F104
F440.35000610351562
tp1469
a(F0
F104
F440.64999389648438
tp1470
a(F0
F104
F440.95001220703125
tp1471
a(F0
F104
F441.25
tp1472
a(F0
F104
F441.54998779296875
tp1473
a(F0
F104
F441.85000610351562
tp1474
a(F0
F104
F442.14999389648438
tp1475
a(F0
F104
F442.45001220703125
tp1476
a(F0
F104
F442.75
tp1477
a(F0
F104
F443.04998779296875
tp1478
a(F0
F104
F443.35000610351562
tp1479
a(F0
F104
F443.64999389648438
tp1480
a(F0
F104
F443.95001220703125
tp1481
a(F0
F104
F444.25
tp1482
a(F0
F104
F444.54998779296875
tp1483
a(F0
F104
F444.85000610351562
tp1484
a(F0
F104
F445.14999389648438
tp1485
a(F0
F104
F445.45001220703125
tp1486
a(F0
F104
F445.75
tp1487
a(F0
F104
F446.04998779296875
tp1488
a(F0
F104
F446.35000610351562
tp1489
a(F0
F104
F446.64999389648438
tp1490
a(F0
F104
F446.95001220703125
tp1491
a(F0
F104
F447.25
tp1492
a(F0
F104
F447.54998779296875
tp1493
a(F0
F104
F447.85000610351562
tp1494
a(F0
F104
F448.14999389648438
tp1495
a(F0
F104
F448.45001220703125
tp1496
a(F0
F104
F448.75
tp1497
a(F0
F104
F449.04998779296875
tp1498
a(F0
F104
F449.35000610351562
tp1499
a(F0
F104
F449.64999389648438
tp1500
a(F0
F104
F449.95001220703125
tp1501
a(F0
F104
F450.25
tp1502
a(F0
F104
F450.54998779296875
tp1503
a(F0
F104
F450.85000610351562
tp1504
a(F0
F104
F451.14999389648438
tp1505
a(F0
F104
F451.45001220703125
tp1506
a(F0
F104
F451.75
tp1507
a(F0
F104
F452.04998779296875
tp1508
a(F0
F104
F452.35000610351562
tp1509
a(F0
F104
F452.64999389648438
tp1510
a(F0
F104
F452.95001220703125
tp1511
a(F0
F104
F453.25
tp1512
a(F0
F104
F453.54998779296875
tp1513
a(F0
F104
F453.85000610351562
tp1514
a(F0
F104
F454.14999389648438
tp1515
a(F0
F104
F454.45001220703125
tp1516
a(F0
F104
F454.75
tp1517
a(F0
F104
F455.04998779296875
tp1518
a(F0
F104
F455.35000610351562
tp1519
a(F0
F104
F455.64999389648438
tp1520
a(F0
F104
F455.95001220703125
tp1521
a(F0
F104
F456.25
tp1522
a(F0
F104
F456.54998779296875
tp1523
a(F0
F104
F456.85000610351562
tp1524
a(F0
F104
F457.14999389648438
tp1525
a(F0
F104
F457.45001220703125
tp1526
a(F0
F104
F457.75
tp1527
a(F0
F104
F458.04998779296875
tp1528
a(F0
F104
F458.35000610351562
tp1529
a(F0
F104
F458.64999389648438
tp1530
a(F0
F104
F458.95001220703125
tp1531
a(F0
F104
F459.25
tp1532
a(F0
F104
F459.54998779296875
tp1533
a(F0
F104
F459.85000610351562
tp1534
a(F0
F104
F460.14999389648438
tp1535
a(F0
F104
F460.45001220703125
tp1536
a(F0
F104
F460.75
tp1537
a(F0
F104
F461.04998779296875
tp1538
a(F0
F104
F461.35000610351562
tp1539
a(F0
F104
F461.64999389648438
tp1540
a(F0
F104
F461.95001220703125
tp1541
a(F0
F104
F462.25
tp1542
a(F0
F104
F462.54998779296875
tp1543
a(F0
F104
F462.85000610351562
tp1544
a(F0
F104
F463.14999389648438
tp1545
a(F0
F104
F463.45001220703125
tp1546
a(F0
F104
F463.75
tp1547
a(F0
F104
F464.04998779296875
tp1548
a(F0
F104
F464.35000610351562
tp1549
a(F0
F104
F464.64999389648438
tp1550
a(F0
F104
F464.95001220703125
tp1551
a(F0
F104
F465.25
tp1552
a(F0
F104
F465.54998779296875
tp1553
a(F0
F104
F465.85000610351562
tp1554
a(F0
F104
F466.14999389648438
tp1555
a(F0
F104
F466.45001220703125
tp1556
a(F0
F104
F466.75
tp1557
a(F0
F104
F467.04998779296875
tp1558
a(F0
F104
F467.35000610351562
tp1559
a(F0
F104
F467.64999389648438
tp1560
a(F0
F104
F467.95001220703125
tp1561
a(F0
F104
F468.25
tp1562
a(F0
F104
F468.54998779296875
tp1563
a(F0
F104
F468.85000610351562
tp1564
a(F0
F104
F469.14999389648438
tp1565
a(F0
F104
F469.45001220703125
tp1566
a(F0
F104
F469.75
tp1567
a(F0
F104
F470.04998779296875
tp1568
a(F0
F104
F470.35000610351562
tp1569
a(F0
F104
F470.64999389648438
tp1570
a(F0
F104
F470.95001220703125
tp1571
a(F0
F104
F471.25
tp1572
a(F0
F104
F471.54998779296875
tp1573
a(F0
F104
F471.85000610351562
tp1574
a(F0
F104
F472.14999389648438
tp1575
a(F0
F104
F472.45001220703125
tp1576
a(F0
F104
F472.75
tp1577
a(F0
F104
F473.04998779296875
tp1578
a(F0
F104
F473.35000610351562
tp1579
a(F0
F104
F473.64999389648438
tp1580
a(F0
F104
F473.95001220703125
tp1581
a(F0
F104
F474.25
tp1582
a(F0
F104
F474.54998779296875
tp1583
a(F0
F104
F474.85000610351562
tp1584
a(F0
F104
F475.14999389648438
tp1585
a(F0
F104
F475.45001220703125
tp1586
a(F0
F104
F475.75
tp1587
a(F0
F104
F476.04998779296875
tp1588
a(F0
F104
F476.35000610351562
tp1589
a(F0
F104
F476.64999389648438
tp1590
a(F0
F104
F476.95001220703125
tp1591
a(F0
F104
F477.25
tp1592
a(F0
F104
F477.54998779296875
tp1593
a(F0
F104
F477.85000610351562
tp1594
a(F0
F104
F478.14999389648438
tp1595
a(F0
F104
F478.45001220703125
tp1596
a(F0
F104
F478.75
tp1597
a(F0
F104
F479.04998779296875
tp1598
a(F0
F104
F479.35000610351562
tp1599
a(F0
F104
F479.64999389648438
tp1600
a(F0
F104
F479.95001220703125
tp1601
a(F0
F104
F480.25
tp1602
a(F0
F104
F480.54998779296875
tp1603
a(F0
F104
F480.85000610351562
tp1604
a(F0
F104
F481.14999389648438
tp1605
a(F0
F104
F481.45001220703125
tp1606
a(F0
F104
F481.75
tp1607
a(F0
F104
F482.04998779296875
tp1608
a(F0
F104
F482.35000610351562
tp1609
a(F0
F104
F482.64999389648438
tp1610
a(F0
F104
F482.95001220703125
tp1611
a(F0
F104
F483.25
tp1612
a(F0
F104
F483.54998779296875
tp1613
a(F0
F104
F483.85000610351562
tp1614
a(F0
F104
F484.14999389648438
tp1615
a(F0
F104
F484.45001220703125
tp1616
a(F0
F104
F484.75
tp1617
a(F0
F104
F485.04998779296875
tp1618
a(F0
F104
F485.35000610351562
tp1619
a(F0
F104
F485.64999389648438
tp1620
a(F0
F104
F485.95001220703125
tp1621
a(F0
F104
F486.25
tp1622
a(F0
F104
F486.54998779296875
tp1623
a(F0
F104
F486.85000610351562
tp1624
a(F0
F104
F487.14999389648438
tp1625
a(F0
F104
F487.45001220703125
tp1626
a(F0
F104
F487.75
tp1627
a(F0
F104
F488.04998779296875
tp1628
a(F0
F104
F488.35000610351562
tp1629
a(F0
F104
F488.64999389648438
tp1630
a(F0
F104
F488.95001220703125
tp1631
a(F0
F104
F489.25
tp1632
a(F0
F104
F489.54998779296875
tp1633
a(F0
F104
F489.85000610351562
tp1634
a(F0
F104
F490.14999389648438
tp1635
a(F0
F104
F490.45001220703125
tp1636
a(F0
F104
F490.75
tp1637
a(F0
F104
F491.04998779296875
tp1638
a(F0
F104
F491.35000610351562
tp1639
a(F0
F104
F491.64999389648438
tp1640
a(F0
F104
F491.95001220703125
tp1641
a(F0
F104
F492.25
tp1642
a(F0
F104
F492.54998779296875
tp1643
a(F0
F104
F492.85000610351562
tp1644
a(F0
F104
F493.14999389648438
tp1645
a(F0
F104
F493.45001220703125
tp1646
a(F0
F104
F493.75
tp1647
a(F0
F104
F494.04998779296875
tp1648
a(F0
F104
F494.35000610351562
tp1649
a(F0
F104
F494.64999389648438
tp1650
a(F0
F104
F494.95001220703125
tp1651
a(F0
F104
F495.25
tp1652
a(F0
F104
F495.54998779296875
tp1653
a(F0
F104
F495.85000610351562
tp1654
a(F0
F104
F496.14999389648438
tp1655
a(F0
F104
F496.45001220703125
tp1656
a(F0
F104
F496.75
tp1657
a(F0
F104
F497.04998779296875
tp1658
a(F0
F104
F497.35000610351562
tp1659
a(F0
F104
F497.64999389648438
tp1660
a(F0
F104
F497.95001220703125
tp1661
a(F0
F104
F498.25
tp1662
a(F0
F104
F498.54998779296875
tp1663
a(F0
F104
F498.85000610351562
tp1664
a(F0
F104
F499.14999389648438
tp1665
a(F0
F104
F499.45001220703125
tp1666
a(F0
F104
F499.75
tp1667
a(F0
F104
F500.04998779296875
tp1668
a(F0
F104
F500.35000610351562
tp1669
a(F0
F104
F500.64999389648438
tp1670
a(F0
F104
F500.95001220703125
tp1671
a(F0
F104
F501.25
tp1672
a(F0
F104
F501.54998779296875
tp1673
a(F0
F104
F501.85000610351562
tp1674
a(F0
F104
F502.14999389648438
tp1675
a(F0
F104
F502.45001220703125
tp1676
a(F0
F104
F502.75
tp1677
a(F0
F104
F503.04998779296875
tp1678
a(F0
F104
F503.35000610351562
tp1679
a(F0
F104
F503.64999389648438
tp1680
a(F0
F104
F503.95001220703125
tp1681
a(F0
F104
F504.25
tp1682
a(F0
F104
F504.54998779296875
tp1683
a(F0
F104
F504.85000610351562
tp1684
a(F0
F104
F505.14999389648438
tp1685
a(F0
F104
F505.45001220703125
tp1686
a(F0
F104
F505.75
tp1687
a(F0
F104
F506.04998779296875
tp1688
a(F0
F104
F506.35000610351562
tp1689
a(F0
F104
F506.64999389648438
tp1690
a(F0
F104
F506.95001220703125
tp1691
a(F0
F104
F507.25
tp1692
a(F0
F104
F507.54998779296875
tp1693
a(F0
F104
F507.85000610351562
tp1694
a(F0
F104
F508.14999389648438
tp1695
a(F0
F104
F508.45001220703125
tp1696
a(F0
F104
F508.75
tp1697
a(F0
F104
F509.04998779296875
tp1698
a(F0
F104
F509.35000610351562
tp1699
a(F0
F104
F509.64999389648438
tp1700
a(F0
F104
F509.95001220703125
tp1701
a(F0
F104
F510.25
tp1702
a(F0
F104
F510.54998779296875
tp1703
a(F0
F104
F510.85000610351562
tp1704
a(F0
F104
F511.14999389648438
tp1705
a(F0
F104
F511.45001220703125
tp1706
a(F0
F104
F511.75
tp1707
a(F0
F104
F512.04998779296875
tp1708
a(F0
F104
F512.3499755859375
tp1709
a(F0
F104
F512.6500244140625
tp1710
a(F0
F104
F512.95001220703125
tp1711
a(F0
F104
F513.25
tp1712
a(F0
F104
F513.54998779296875
tp1713
a(F0
F104
F513.8499755859375
tp1714
a(F0
F104
F514.1500244140625
tp1715
a(F0
F104
F514.45001220703125
tp1716
a(F0
F104
F514.75
tp1717
a(F0
F104
F515.04998779296875
tp1718
a(F0
F104
F515.3499755859375
tp1719
a(F0
F104
F515.6500244140625
tp1720
a(F0
F104
F515.95001220703125
tp1721
a(F0
F104
F516.25
tp1722
a(F0
F104
F516.54998779296875
tp1723
a(F0
F104
F516.8499755859375
tp1724
a(F0
F104
F517.1500244140625
tp1725
a(F0
F104
F517.45001220703125
tp1726
a(F0
F104
F517.75
tp1727
a(F0
F104
F518.04998779296875
tp1728
a(F0
F104
F518.3499755859375
tp1729
a(F0
F104
F518.6500244140625
tp1730
a(F0
F104
F518.95001220703125
tp1731
a(F0
F104
F519.25
tp1732
a(F0
F104
F519.54998779296875
tp1733
a(F0
F104
F519.8499755859375
tp1734
a(F0
F104
F520.1500244140625
tp1735
a(F0
F104
F520.45001220703125
tp1736
a(F0
F104
F520.75
tp1737
a(F0
F104
F521.04998779296875
tp1738
a(F0
F104
F521.3499755859375
tp1739
a(F0
F104
F521.6500244140625
tp1740
a(F0
F104
F521.95001220703125
tp1741
a(F0
F104
F522.25
tp1742
a(F0
F104
F522.54998779296875
tp1743
a(F0
F104
F522.8499755859375
tp1744
a(F0
F104
F523.1500244140625
tp1745
a(F0
F104
F523.45001220703125
tp1746
a(F0
F104
F523.75
tp1747
a(F0
F104
F524.04998779296875
tp1748
a(F0
F104
F524.3499755859375
tp1749
a(F0
F104
F524.6500244140625
tp1750
a(F0
F104
F524.95001220703125
tp1751
a(F0
F104
F525.25
tp1752
a(F0
F104
F525.54998779296875
tp1753
a(F0
F104
F525.8499755859375
tp1754
a(F0
F104
F526.1500244140625
tp1755
a(F0
F104
F526.45001220703125
tp1756
a(F0
F104
F526.75
tp1757
a(F0
F104
F527.04998779296875
tp1758
a(F0
F104
F527.3499755859375
tp1759
a(F0
F104
F527.6500244140625
tp1760
a(F0
F104
F527.95001220703125
tp1761
a(F0
F104
F528.25
tp1762
a(F0
F104
F528.54998779296875
tp1763
a(F0
F104
F528.8499755859375
tp1764
a(F0
F104
F529.1500244140625
tp1765
a(F0
F104
F529.45001220703125
tp1766
a(F0
F104
F529.75
tp1767
a(F0
F104
F530.04998779296875
tp1768
a(F0
F104
F530.3499755859375
tp1769
a(F0
F104
F530.6500244140625
tp1770
a(F0
F104
F530.95001220703125
tp1771
a(F0
F104
F531.25
tp1772
a(F0
F104
F531.54998779296875
tp1773
a(F0
F104
F531.8499755859375
tp1774
a(F0
F104
F532.1500244140625
tp1775
a(F0
F104
F532.45001220703125
tp1776
a(F0
F104
F532.75
tp1777
a(F0
F104
F533.04998779296875
tp1778
a(F0
F104
F533.3499755859375
tp1779
a(F0
F104
F533.6500244140625
tp1780
a(F0
F104
F533.95001220703125
tp1781
a(F0
F104
F534.25
tp1782
a(F0
F104
F534.54998779296875
tp1783
a(F0
F104
F534.8499755859375
tp1784
a(F0
F104
F535.1500244140625
tp1785
a(F0
F104
F535.45001220703125
tp1786
a(F0
F104
F535.75
tp1787
a(F0
F104
F536.04998779296875
tp1788
a(F0
F104
F536.3499755859375
tp1789
a(F0
F104
F536.6500244140625
tp1790
a(F0
F104
F536.95001220703125
tp1791
a(F0
F104
F537.25
tp1792
a(F0
F104
F537.54998779296875
tp1793
a(F0
F104
F537.8499755859375
tp1794
a(F0
F104
F538.1500244140625
tp1795
a(F0
F104
F538.45001220703125
tp1796
a(F0
F104
F538.75
tp1797
a(F0
F104
F539.04998779296875
tp1798
a(F0
F104
F539.3499755859375
tp1799
a(F0
F104
F539.6500244140625
tp1800
a(F0
F104
F539.95001220703125
tp1801
a(F0
F104
F540.25
tp1802
a(F0
F104
F540.54998779296875
tp1803
a(F0
F104
F540.8499755859375
tp1804
a(F0
F104
F541.1500244140625
tp1805
a(F0
F104
F541.45001220703125
tp1806
a(F0
F104
F541.75
tp1807
a(F0
F104
F542.04998779296875
tp1808
a(F0
F104
F542.3499755859375
tp1809
a(F0
F104
F542.6500244140625
tp1810
a(F0
F104
F542.95001220703125
tp1811
a(F0
F104
F543.25
tp1812
a(F0
F104
F543.54998779296875
tp1813
a(F0
F104
F543.8499755859375
tp1814
a(F0
F104
F544.1500244140625
tp1815
a(F0
F104
F544.45001220703125
tp1816
a(F0
F104
F544.75
tp1817
a(F0
F104
F545.04998779296875
tp1818
a(F0
F104
F545.3499755859375
tp1819
a(F0
F104
F545.6500244140625
tp1820
a(F0
F104
F545.95001220703125
tp1821
a(F0
F104
F546.25
tp1822
a(F0
F104
F546.54998779296875
tp1823
a(F0
F104
F546.8499755859375
tp1824
a(F0
F104
F547.1500244140625
tp1825
a(F0
F104
F547.45001220703125
tp1826
a(F0
F104
F547.75
tp1827
a(F0
F104
F548.04998779296875
tp1828
a(F0
F104
F548.3499755859375
tp1829
a(F0
F104
F548.6500244140625
tp1830
a(F0
F104
F548.95001220703125
tp1831
a(F0
F104
F549.25
tp1832
a(F0
F104
F549.54998779296875
tp1833
a(F0
F104
F549.8499755859375
tp1834
a(F0
F104
F550.1500244140625
tp1835
a(F0
F104
F550.45001220703125
tp1836
a(F0
F104
F550.75
tp1837
a(F0
F104
F551.04998779296875
tp1838
a(F0
F104
F551.3499755859375
tp1839
a(F0
F104
F551.6500244140625
tp1840
a(F0
F104
F551.95001220703125
tp1841
a(F0
F104
F552.25
tp1842
a(F0
F104
F552.54998779296875
tp1843
a(F0
F104
F552.8499755859375
tp1844
a(F0
F104
F553.1500244140625
tp1845
a(F0
F104
F553.45001220703125
tp1846
a(F0
F104
F553.75
tp1847
a(F0
F104
F554.04998779296875
tp1848
a(F0
F104
F554.3499755859375
tp1849
a(F0
F104
F554.6500244140625
tp1850
a(F0
F104
F554.95001220703125
tp1851
a(F0
F104
F555.25
tp1852
a(F0
F104
F555.54998779296875
tp1853
a(F0
F104
F555.8499755859375
tp1854
a(F0
F104
F556.1500244140625
tp1855
a(F0
F104
F556.45001220703125
tp1856
a(F0
F104
F556.75
tp1857
a(F0
F104
F557.04998779296875
tp1858
a(F0
F104
F557.3499755859375
tp1859
a(F0
F104
F557.6500244140625
tp1860
a(F0
F104
F557.95001220703125
tp1861
a(F0
F104
F558.25
tp1862
a(F0
F104
F558.54998779296875
tp1863
a(F0
F104
F558.8499755859375
tp1864
a(F0
F104
F559.1500244140625
tp1865
a(F0
F104
F559.45001220703125
tp1866
a(F0
F104
F559.75
tp1867
a(F0
F104
F560.04998779296875
tp1868
a(F0
F104
F560.3499755859375
tp1869
a(F0
F104
F560.6500244140625
tp1870
a(F0
F104
F560.95001220703125
tp1871
a(F0
F104
F561.25
tp1872
a(F0
F104
F561.54998779296875
tp1873
a(F0
F104
F561.8499755859375
tp1874
a(F0
F104
F562.1500244140625
tp1875
a(F0
F104
F562.45001220703125
tp1876
a(F0
F104
F562.75
tp1877
a(F0
F104
F563.04998779296875
tp1878
a(F0
F104
F563.3499755859375
tp1879
a(F0
F104
F563.6500244140625
tp1880
a(F0
F104
F563.95001220703125
tp1881
a(F0
F104
F564.25
tp1882
a(F0
F104
F564.54998779296875
tp1883
a(F0
F104
F564.8499755859375
tp1884
a(F0
F104
F565.1500244140625
tp1885
a(F0
F104
F565.45001220703125
tp1886
a(F0
F104
F565.75
tp1887
a(F0
F104
F566.04998779296875
tp1888
a(F0
F104
F566.3499755859375
tp1889
a(F0
F104
F566.6500244140625
tp1890
a(F0
F104
F566.95001220703125
tp1891
a(F0
F104
F567.25
tp1892
a(F0
F104
F567.54998779296875
tp1893
a(F0
F104
F567.8499755859375
tp1894
a(F0
F104
F568.1500244140625
tp1895
a(F0
F104
F568.45001220703125
tp1896
a(F0
F104
F568.75
tp1897
a(F0
F104
F569.04998779296875
tp1898
a(F0
F104
F569.3499755859375
tp1899
a(F0
F104
F569.6500244140625
tp1900
a(F0
F104
F569.95001220703125
tp1901
a(F0
F104
F570.25
tp1902
a(F0
F104
F570.54998779296875
tp1903
a(F0
F104
F570.8499755859375
tp1904
a(F0
F104
F571.1500244140625
tp1905
a(F0
F104
F571.45001220703125
tp1906
a(F0
F104
F571.75
tp1907
a(F0
F104
F572.04998779296875
tp1908
a(F0
F104
F572.3499755859375
tp1909
a(F0
F104
F572.6500244140625
tp1910
a(F0
F104
F572.95001220703125
tp1911
a(F0
F104
F573.25
tp1912
a(F0
F104
F573.54998779296875
tp1913
a(F0
F104
F573.8499755859375
tp1914
a(F0
F104
F574.1500244140625
tp1915
a(F0
F104
F574.45001220703125
tp1916
a(F0
F104
F574.75
tp1917
a(F0
F104
F575.04998779296875
tp1918
a(F0
F104
F575.3499755859375
tp1919
a(F0
F104
F575.6500244140625
tp1920
a(F0
F104
F575.95001220703125
tp1921
a(F0
F104
F576.25
tp1922
a(F0
F104
F576.54998779296875
tp1923
a(F0
F104
F576.8499755859375
tp1924
a(F0
F104
F577.1500244140625
tp1925
a(F0
F104
F577.45001220703125
tp1926
a(F0
F104
F577.75
tp1927
a(F0
F104
F578.04998779296875
tp1928
a(F0
F104
F578.3499755859375
tp1929
a(F0
F104
F578.6500244140625
tp1930
a(F0
F104
F578.95001220703125
tp1931
a(F0
F104
F579.25
tp1932
a(F0
F104
F579.54998779296875
tp1933
a(F0
F104
F579.8499755859375
tp1934
a(F0
F104
F580.1500244140625
tp1935
a(F0
F104
F580.45001220703125
tp1936
a(F0
F104
F580.75
tp1937
a(F0
F104
F581.04998779296875
tp1938
a(F0
F104
F581.3499755859375
tp1939
a(F0
F104
F581.6500244140625
tp1940
a(F0
F104
F581.95001220703125
tp1941
a(F0
F104
F582.25
tp1942
a(F0
F104
F582.54998779296875
tp1943
a(F0
F104
F582.8499755859375
tp1944
a(F0
F104
F583.1500244140625
tp1945
a(F0
F104
F583.45001220703125
tp1946
a(F0
F104
F583.75
tp1947
a(F0
F104
F584.04998779296875
tp1948
a(F0
F104
F584.3499755859375
tp1949
a(F0
F104
F584.6500244140625
tp1950
a(F0
F104
F584.95001220703125
tp1951
a(F0
F104
F585.25
tp1952
a(F0
F104
F585.54998779296875
tp1953
a(F0
F104
F585.8499755859375
tp1954
a(F0
F104
F586.1500244140625
tp1955
a(F0
F104
F586.45001220703125
tp1956
a(F0
F104
F586.75
tp1957
a(F0
F104
F587.04998779296875
tp1958
a(F0
F104
F587.3499755859375
tp1959
a(F0
F104
F587.6500244140625
tp1960
a(F0
F104
F587.95001220703125
tp1961
a(F0
F104
F588.25
tp1962
a(F0
F104
F588.54998779296875
tp1963
a(F0
F104
F588.8499755859375
tp1964
a(F0
F104
F589.1500244140625
tp1965
a(F0
F104
F589.45001220703125
tp1966
a(F0
F104
F589.75
tp1967
a(F0
F104
F590.04998779296875
tp1968
a(F0
F104
F590.3499755859375
tp1969
a(F0
F104
F590.6500244140625
tp1970
a(F0
F104
F590.95001220703125
tp1971
a(F0
F104
F591.25
tp1972
a(F0
F104
F591.54998779296875
tp1973
a(F0
F104
F591.8499755859375
tp1974
a(F0
F104
F592.1500244140625
tp1975
a(F0
F104
F592.45001220703125
tp1976
a(F0
F104
F592.75
tp1977
a(F0
F104
F593.04998779296875
tp1978
a(F0
F104
F593.3499755859375
tp1979
a(F0
F104
F593.6500244140625
tp1980
a(F0
F104
F593.95001220703125
tp1981
a(F0
F104
F594.25
tp1982
a(F0
F104
F594.54998779296875
tp1983
a(F0
F104
F594.8499755859375
tp1984
a(F0
F104
F595.1500244140625
tp1985
a(F0
F104
F595.45001220703125
tp1986
a(F0
F104
F595.75
tp1987
a(F0
F104
F596.04998779296875
tp1988
a(F0
F104
F596.3499755859375
tp1989
a(F0
F104
F596.6500244140625
tp1990
a(F0
F104
F596.95001220703125
tp1991
a(F0
F104
F597.25
tp1992
a(F0
F104
F597.54998779296875
tp1993
a(F0
F104
F597.8499755859375
tp1994
a(F0
F104
F598.1500244140625
tp1995
a(F0
F104
F598.45001220703125
tp1996
a(F0
F104
F598.75
tp1997
a(F0
F104
F599.04998779296875
tp1998
a(F0
F104
F599.3499755859375
tp1999
a(F0
F104
F599.6500244140625
tp2000
a(F0
F104
F599.95001220703125
tp2001
a(F0
F104
F600.25
tp2002
a(F0
F104
F600.54998779296875
tp2003
a(F0
F104
F600.8499755859375
tp2004
a(F0
F104
F601.1500244140625
tp2005
a(F0
F104
F601.45001220703125
tp2006
a(F0
F104
F601.75
tp2007
a(F0
F104
F602.04998779296875
tp2008
a(F0
F104
F602.3499755859375
tp2009
a(F0
F104
F602.6500244140625
tp2010
a(F0
F104
F602.95001220703125
tp2011
a(F0
F104
F603.25
tp2012
a(F0
F104
F603.54998779296875
tp2013
a(F0
F104
F603.8499755859375
tp2014
a(F0
F104
F604.1500244140625
tp2015
a(F0
F104
F604.45001220703125
tp2016
a(F0
F104
F604.75
tp2017
a(F0
F104
F605.04998779296875
tp2018
a(F0
F104
F605.3499755859375
tp2019
a(F0
F104
F605.6500244140625
tp2020
a(F0
F104
F605.95001220703125
tp2021
a(F0
F104
F606.25
tp2022
a(F0
F104
F606.54998779296875
tp2023
a(F0
F104
F606.8499755859375
tp2024
a(F0
F104
F607.1500244140625
tp2025
a(F0
F104
F607.45001220703125
tp2026
a(F0
F104
F607.75
tp2027
a(F0
F104
F608.04998779296875
tp2028
a(F0
F104
F608.3499755859375
tp2029
a(F0
F104
F608.6500244140625
tp2030
a(F0
F104
F608.95001220703125
tp2031
a(F0
F104
F609.25
tp2032
a(F0
F104
F609.54998779296875
tp2033
a(F0
F104
F609.8499755859375
tp2034
a(F0
F104
F610.1500244140625
tp2035
a(F0
F104
F610.45001220703125
tp2036
a(F0
F104
F610.75
tp2037
a(F0
F104
F611.04998779296875
tp2038
a(F0
F104
F611.3499755859375
tp2039
a(F0
F104
F611.6500244140625
tp2040
a(F0
F104
F611.95001220703125
tp2041
a(F0
F104
F612.25
tp2042
a(F0
F104
F612.54998779296875
tp2043
a(F0
F104
F612.8499755859375
tp2044
a(F0
F104
F613.1500244140625
tp2045
a(F0
F104
F613.45001220703125
tp2046
a(F0
F104
F613.75
tp2047
a(F0
F104
F614.04998779296875
tp2048
a(F0
F104
F614.3499755859375
tp2049
a(F0
F104
F614.6500244140625
tp2050
a(F0
F104
F614.95001220703125
tp2051
a(F0
F104
F615.25
tp2052
a(F0
F104
F615.54998779296875
tp2053
a(F0
F104
F615.8499755859375
tp2054
a(F0
F104
F616.1500244140625
tp2055
a(F0
F104
F616.45001220703125
tp2056
a(F0
F104
F616.75
tp2057
a(F0
F104
F617.04998779296875
tp2058
a(F0
F104
F617.3499755859375
tp2059
a(F0
F104
F617.6500244140625
tp2060
a(F0
F104
F617.95001220703125
tp2061
a(F0
F104
F618.25
tp2062
a(F0
F104
F618.54998779296875
tp2063
a(F0
F104
F618.8499755859375
tp2064
a(F0
F104
F619.1500244140625
tp2065
a(F0
F104
F619.45001220703125
tp2066
a(F0
F104
F619.75
tp2067
a(F0
F104
F620.04998779296875
tp2068
a(F0
F104
F620.3499755859375
tp2069
a(F0
F104
F620.6500244140625
tp2070
a(F0
F104
F620.95001220703125
tp2071
a(F0
F104
F621.25
tp2072
a(F0
F104
F621.54998779296875
tp2073
a(F0
F104
F621.8499755859375
tp2074
a(F0
F104
F622.1500244140625
tp2075
a(F0
F104
F622.45001220703125
tp2076
a(F0
F104
F622.75
tp2077
a(F0
F104
F623.04998779296875
tp2078
a(F0
F104
F623.3499755859375
tp2079
a(F0
F104
F623.6500244140625
tp2080
a(F0
F104
F623.95001220703125
tp2081
a(F0
F104
F624.25
tp2082
a(F0
F104
F624.54998779296875
tp2083
a(F0
F104
F624.8499755859375
tp2084
a(F0
F104
F625.1500244140625
tp2085
a(F0
F104
F625.45001220703125
tp2086
a(F0
F104
F625.75
tp2087
a(F0
F104
F626.04998779296875
tp2088
a(F0
F104
F626.3499755859375
tp2089
a(F0
F104
F626.6500244140625
tp2090
a(F0
F104
F626.95001220703125
tp2091
a(F0
F104
F627.25
tp2092
a(F0
F104
F627.54998779296875
tp2093
a(F0
F104
F627.8499755859375
tp2094
a(F0
F104
F628.1500244140625
tp2095
a(F0
F104
F628.45001220703125
tp2096
a(F0
F104
F628.75
tp2097
a(F0
F104
F629.04998779296875
tp2098
a(F0
F104
F629.3499755859375
tp2099
a(F0
F104
F629.6500244140625
tp2100
a(F0
F104
F629.95001220703125
tp2101
a(F0
F104
F630.25
tp2102
a(F0
F104
F630.54998779296875
tp2103
a(F0
F104
F630.8499755859375
tp2104
a(F0
F104
F631.1500244140625
tp2105
a(F0
F104
F631.45001220703125
tp2106
a(F0
F104
F631.75
tp2107
a(F0
F104
F632.04998779296875
tp2108
a(F0
F104
F632.3499755859375
tp2109
a(F0
F104
F632.6500244140625
tp2110
a(F0
F104
F632.95001220703125
tp2111
a(F0
F104
F633.25
tp2112
a(F0
F104
F633.54998779296875
tp2113
a(F0
F104
F633.8499755859375
tp2114
a(F0
F104
F634.1500244140625
tp2115
a(F0
F104
F634.45001220703125
tp2116
a(F0
F104
F634.75
tp2117
a(F0
F104
F635.04998779296875
tp2118
a(F0
F104
F635.3499755859375
tp2119
a(F0
F104
F635.6500244140625
tp2120
a(F0
F104
F635.95001220703125
tp2121
a(F0
F104
F636.25
tp2122
a(F0
F104
F636.54998779296875
tp2123
a(F0
F104
F636.8499755859375
tp2124
a(F0
F104
F637.1500244140625
tp2125
a(F0
F104
F637.45001220703125
tp2126
a(F0
F104
F637.75
tp2127
a(F0
F104
F638.04998779296875
tp2128
a(F0
F104
F638.3499755859375
tp2129
a(F0
F104
F638.6500244140625
tp2130
a(F0
F104
F638.95001220703125
tp2131
a(F0
F104
F639.25
tp2132
a(F0
F104
F639.54998779296875
tp2133
a(F0
F104
F639.8499755859375
tp2134
a(F0
F104
F640.1500244140625
tp2135
a(F0
F104
F640.45001220703125
tp2136
a(F0
F104
F640.75
tp2137
a(F0
F104
F641.04998779296875
tp2138
a(F0
F104
F641.3499755859375
tp2139
a(F0
F104
F641.6500244140625
tp2140
a(F0
F104
F641.95001220703125
tp2141
a(F0
F104
F642.25
tp2142
a(F0
F104
F642.54998779296875
tp2143
a(F0
F104
F642.8499755859375
tp2144
a(F0
F104
F643.1500244140625
tp2145
a(F0
F104
F643.45001220703125
tp2146
a(F0
F104
F643.75
tp2147
a(F0
F104
F644.04998779296875
tp2148
a(F0
F104
F644.3499755859375
tp2149
a(F0
F104
F644.6500244140625
tp2150
a(F0
F104
F644.95001220703125
tp2151
a(F0
F104
F645.25
tp2152
a(F0
F104
F645.54998779296875
tp2153
a(F0
F104
F645.8499755859375
tp2154
a(F0
F104
F646.1500244140625
tp2155
a(F0
F104
F646.45001220703125
tp2156
a(F0
F104
F646.75
tp2157
a(F0
F104
F647.04998779296875
tp2158
a(F0
F104
F647.3499755859375
tp2159
a(F0
F104
F647.6500244140625
tp2160
a(F0
F104
F647.95001220703125
tp2161
a(F0
F104
F648.25
tp2162
a(F0
F104
F648.54998779296875
tp2163
a(F0
F104
F648.8499755859375
tp2164
a(F0
F104
F649.1500244140625
tp2165
a(F0
F104
F649.45001220703125
tp2166
a(F0
F104
F649.75
tp2167
a(F0
F104
F650.04998779296875
tp2168
a(F0
F104
F650.3499755859375
tp2169
a(F0
F104
F650.6500244140625
tp2170
a(F0
F104
F650.95001220703125
tp2171
a(F0
F104
F651.25
tp2172
a(F0
F104
F651.54998779296875
tp2173
a(F0
F104
F651.8499755859375
tp2174
a(F0
F104
F652.1500244140625
tp2175
a(F0
F104
F652.45001220703125
tp2176
a(F0
F104
F652.75
tp2177
a(F0
F104
F653.04998779296875
tp2178
a(F0
F104
F653.3499755859375
tp2179
a(F0
F104
F653.6500244140625
tp2180
a(F0
F104
F653.95001220703125
tp2181
a(F0
F104
F654.25
tp2182
a(F0
F104
F654.54998779296875
tp2183
a(F0
F104
F654.8499755859375
tp2184
a(F0
F104
F655.1500244140625
tp2185
a(F0
F104
F655.45001220703125
tp2186
a(F0
F104
F655.75
tp2187
a(F0
F104
F656.04998779296875
tp2188
a(F0
F104
F656.3499755859375
tp2189
a(F0
F104
F656.6500244140625
tp2190
a(F0
F104
F656.95001220703125
tp2191
a(F0
F104
F657.25
tp2192
a(F0
F104
F657.54998779296875
tp2193
a(F0
F104
F657.8499755859375
tp2194
a(F0
F104
F658.1500244140625
tp2195
a(F0
F104
F658.45001220703125
tp2196
a(F0
F104
F658.75
tp2197
a(F0
F104
F659.04998779296875
tp2198
a(F0
F104
F659.3499755859375
tp2199
a(F0
F104
F659.6500244140625
tp2200
a(F0
F104
F659.95001220703125
tp2201
a(F0
F104
F660.25
tp2202
a(F0
F104
F660.54998779296875
tp2203
a(F0
F104
F660.8499755859375
tp2204
a(F0
F104
F661.1500244140625
tp2205
a(F0
F104
F661.45001220703125
tp2206
a(F0
F104
F661.75
tp2207
a(F0
F104
F662.04998779296875
tp2208
a(F0
F104
F662.3499755859375
tp2209
a(F0
F104
F662.6500244140625
tp2210
a(F0
F104
F662.95001220703125
tp2211
a(F0
F104
F663.25
tp2212
a(F0
F104
F663.54998779296875
tp2213
a(F0
F104
F663.8499755859375
tp2214
a(F0
F104
F664.1500244140625
tp2215
a(F0
F104
F664.45001220703125
tp2216
a(F0
F104
F664.75
tp2217
a(F0
F104
F665.04998779296875
tp2218
a(F0
F104
F665.3499755859375
tp2219
a(F0
F104
F665.6500244140625
tp2220
a(F0
F104
F665.95001220703125
tp2221
a(F0
F104
F666.25
tp2222
a(F0
F104
F666.54998779296875
tp2223
a(F0
F104
F666.8499755859375
tp2224
a(F0
F104
F667.1500244140625
tp2225
a(F0
F104
F667.45001220703125
tp2226
a(F0
F104
F667.75
tp2227
a(F0
F104
F668.04998779296875
tp2228
a(F0
F104
F668.3499755859375
tp2229
a(F0
F104
F668.6500244140625
tp2230
a(F0
F104
F668.95001220703125
tp2231
a(F0
F104
F669.25
tp2232
a(F0
F104
F669.54998779296875
tp2233
a(F0
F104
F669.8499755859375
tp2234
a(F0
F104
F670.1500244140625
tp2235
a(F0
F104
F670.45001220703125
tp2236
a(F0
F104
F670.75
tp2237
a(F0
F104
F671.04998779296875
tp2238
a(F0
F104
F671.3499755859375
tp2239
a(F0
F104
F671.6500244140625
tp2240
a(F0
F104
F671.95001220703125
tp2241
a(F0
F104
F672.25
tp2242
a(F0
F104
F672.54998779296875
tp2243
a(F0
F104
F672.8499755859375
tp2244
a(F0
F104
F673.1500244140625
tp2245
a(F0
F104
F673.45001220703125
tp2246
a(F0
F104
F673.75
tp2247
a(F0
F104
F674.04998779296875
tp2248
a(F0
F104
F674.3499755859375
tp2249
a(F0
F104
F674.6500244140625
tp2250
a(F0
F104
F674.95001220703125
tp2251
a(F0
F104
F675.25
tp2252
a(F0
F104
F675.54998779296875
tp2253
a(F0
F104
F675.8499755859375
tp2254
a(F0
F104
F676.1500244140625
tp2255
a(F0
F104
F676.45001220703125
tp2256
a(F0
F104
F676.75
tp2257
a(F0
F104
F677.04998779296875
tp2258
a(F0
F104
F677.3499755859375
tp2259
a(F0
F104
F677.6500244140625
tp2260
a(F0
F104
F677.95001220703125
tp2261
a(F0
F104
F678.25
tp2262
a(F0
F104
F678.54998779296875
tp2263
a(F0
F104
F678.8499755859375
tp2264
a(F0
F104
F679.1500244140625
tp2265
a(F0
F104
F679.45001220703125
tp2266
a(F0
F104
F679.75
tp2267
a(F0
F104
F680.04998779296875
tp2268
a(F0
F104
F680.3499755859375
tp2269
a(F0
F104
F680.6500244140625
tp2270
a(F0
F104
F680.95001220703125
tp2271
a(F0
F104
F681.25
tp2272
a(F0
F104
F681.54998779296875
tp2273
a(F0
F104
F681.8499755859375
tp2274
a(F0
F104
F682.1500244140625
tp2275
a(F0
F104
F682.45001220703125
tp2276
a(F0
F104
F682.75
tp2277
a(F0
F104
F683.04998779296875
tp2278
a(F0
F104
F683.3499755859375
tp2279
a(F0
F104
F683.6500244140625
tp2280
a(F0
F104
F683.95001220703125
tp2281
a(F0
F104
F684.25
tp2282
a(F0
F104
F684.54998779296875
tp2283
a(F0
F104
F684.8499755859375
tp2284
a(F0
F104
F685.1500244140625
tp2285
a(F0
F104
F685.45001220703125
tp2286
a(F0
F104
F685.75
tp2287
a(F0
F104
F686.04998779296875
tp2288
a(F0
F104
F686.3499755859375
tp2289
a(F0
F104
F686.6500244140625
tp2290
a(F0
F104
F686.95001220703125
tp2291
a(F0
F104
F687.25
tp2292
a(F0
F104
F687.54998779296875
tp2293
a(F0
F104
F687.8499755859375
tp2294
a(F0
F104
F688.1500244140625
tp2295
a(F0
F104
F688.45001220703125
tp2296
a(F0
F104
F688.75
tp2297
a(F0
F104
F689.04998779296875
tp2298
a(F0
F104
F689.3499755859375
tp2299
a(F0
F104
F689.6500244140625
tp2300
a(F0
F104
F689.95001220703125
tp2301
a(F0
F104
F690.25
tp2302
a(F0
F104
F690.54998779296875
tp2303
a(F0
F104
F690.8499755859375
tp2304
a(F0
F104
F691.1500244140625
tp2305
a(F0
F104
F691.45001220703125
tp2306
a(F0
F104
F691.75
tp2307
a(F0
F104
F692.04998779296875
tp2308
a(F0
F104
F692.3499755859375
tp2309
a(F0
F104
F692.6500244140625
tp2310
a(F0
F104
F692.95001220703125
tp2311
a(F0
F104
F693.25
tp2312
a(F0
F104
F693.54998779296875
tp2313
a(F0
F104
F693.8499755859375
tp2314
a(F0
F104
F694.1500244140625
tp2315
a(F0
F104
F694.45001220703125
tp2316
a(F0
F104
F694.75
tp2317
a(F0
F104
F695.04998779296875
tp2318
a(F0
F104
F695.3499755859375
tp2319
a(F0
F104
F695.6500244140625
tp2320
a(F0
F104
F695.95001220703125
tp2321
a(F0
F104
F696.25
tp2322
a(F0
F104
F696.54998779296875
tp2323
a(F0
F104
F696.8499755859375
tp2324
a(F0
F104
F697.1500244140625
tp2325
a(F0
F104
F697.45001220703125
tp2326
a(F0
F104
F697.75
tp2327
a(F0
F104
F698.04998779296875
tp2328
a(F0
F104
F698.3499755859375
tp2329
a(F0
F104
F698.6500244140625
tp2330
a(F0
F104
F698.95001220703125
tp2331
a(F0
F104
F699.25
tp2332
a(F0
F104
F699.54998779296875
tp2333
a(F0
F104
F699.8499755859375
tp2334
a(F0
F104
F700.1500244140625
tp2335
a(F0
F104
F700.45001220703125
tp2336
a(F0
F104
F700.75
tp2337
a(F0
F104
F701.04998779296875
tp2338
a(F0
F104
F701.3499755859375
tp2339
a(F0
F104
F701.6500244140625
tp2340
a(F0
F104
F701.95001220703125
tp2341
a(F0
F104
F702.25
tp2342
a(F0
F104
F702.54998779296875
tp2343
a(F0
F104
F702.8499755859375
tp2344
a(F0
F104
F703.1500244140625
tp2345
a(F0
F104
F703.45001220703125
tp2346
a(F0
F104
F703.75
tp2347
a(F0
F104
F704.04998779296875
tp2348
a(F0
F104
F704.3499755859375
tp2349
a(F0
F104
F704.6500244140625
tp2350
a(F0
F104
F704.95001220703125
tp2351
a(F0
F104
F705.25
tp2352
a(F0
F104
F705.54998779296875
tp2353
a(F0
F104
F705.8499755859375
tp2354
a(F0
F104
F706.1500244140625
tp2355
a(F0
F104
F706.45001220703125
tp2356
a(F0
F104
F706.75
tp2357
a(F0
F104
F707.04998779296875
tp2358
a(F0
F104
F707.3499755859375
tp2359
a(F0
F104
F707.6500244140625
tp2360
a(F0
F104
F707.95001220703125
tp2361
a(F0
F104
F708.25
tp2362
a(F0
F104
F708.54998779296875
tp2363
a(F0
F104
F708.8499755859375
tp2364
a(F0
F104
F709.1500244140625
tp2365
a(F0
F104
F709.45001220703125
tp2366
a(F0
F104
F709.75
tp2367
a(F0
F104
F710.04998779296875
tp2368
a(F0
F104
F710.3499755859375
tp2369
a(F0
F104
F710.6500244140625
tp2370
a(F0
F104
F710.95001220703125
tp2371
a(F0
F104
F711.25
tp2372
a(F0
F104
F711.54998779296875
tp2373
a(F0
F104
F711.8499755859375
tp2374
a(F0
F104
F712.1500244140625
tp2375
a(F0
F104
F712.45001220703125
tp2376
a(F0
F104
F712.75
tp2377
a(F0
F104
F713.04998779296875
tp2378
a(F0
F104
F713.3499755859375
tp2379
a(F0
F104
F713.6500244140625
tp2380
a(F0
F104
F713.95001220703125
tp2381
a(F0
F104
F714.25
tp2382
a(F0
F104
F714.54998779296875
tp2383
a(F0
F104
F714.8499755859375
tp2384
a(F0
F104
F715.1500244140625
tp2385
a(F0
F104
F715.45001220703125
tp2386
a(F0
F104
F715.75
tp2387
a(F0
F104
F716.04998779296875
tp2388
a(F0
F104
F716.3499755859375
tp2389
a(F0
F104
F716.6500244140625
tp2390
a(F0
F104
F716.95001220703125
tp2391
a(F0
F104
F717.25
tp2392
a(F0
F104
F717.54998779296875
tp2393
a(F0
F104
F717.8499755859375
tp2394
a(F0
F104
F718.1500244140625
tp2395
a(F0
F104
F718.45001220703125
tp2396
a(F0
F104
F718.75
tp2397
a(F0
F104
F719.04998779296875
tp2398
a(F0
F104
F719.3499755859375
tp2399
a(F0
F104
F719.6500244140625
tp2400
a(F0
F104
F719.95001220703125
tp2401
a(F0
F104
F720.25
tp2402
a(F0
F104
F720.54998779296875
tp2403
a(F0
F104
F720.8499755859375
tp2404
a(F0
F104
F721.1500244140625
tp2405
a(F0
F104
F721.45001220703125
tp2406
a(F0
F104
F721.75
tp2407
a(F0
F104
F722.04998779296875
tp2408
a(F0
F104
F722.3499755859375
tp2409
a(F0
F104
F722.6500244140625
tp2410
a(F0
F104
F722.95001220703125
tp2411
a(F0
F104
F723.25
tp2412
a(F0
F104
F723.54998779296875
tp2413
a(F0
F104
F723.8499755859375
tp2414
a(F0
F104
F724.1500244140625
tp2415
a(F0
F104
F724.45001220703125
tp2416
a(F0
F104
F724.75
tp2417
a(F0
F104
F725.04998779296875
tp2418
a(F0
F104
F725.3499755859375
tp2419
a(F0
F104
F725.6500244140625
tp2420
a(F0
F104
F725.95001220703125
tp2421
a(F0
F104
F726.25
tp2422
a(F0
F104
F726.54998779296875
tp2423
a(F0
F104
F726.8499755859375
tp2424
a(F0
F104
F727.1500244140625
tp2425
a(F0
F104
F727.45001220703125
tp2426
a(F0
F104
F727.75
tp2427
a(F0
F104
F728.04998779296875
tp2428
a(F0
F104
F728.3499755859375
tp2429
a(F0
F104
F728.6500244140625
tp2430
a(F0
F104
F728.95001220703125
tp2431
a(F0
F104
F729.25
tp2432
a(F0
F104
F729.54998779296875
tp2433
a(F0
F104
F729.8499755859375
tp2434
a(F0
F104
F730.1500244140625
tp2435
a(F0
F104
F730.45001220703125
tp2436
a(F0
F104
F730.75
tp2437
a(F0
F104
F731.04998779296875
tp2438
a(F0
F104
F731.3499755859375
tp2439
a(F0
F104
F731.6500244140625
tp2440
a(F0
F104
F731.95001220703125
tp2441
a(F0
F104
F732.25
tp2442
a(F0
F104
F732.54998779296875
tp2443
a(F0
F104
F732.8499755859375
tp2444
a(F0
F104
F733.1500244140625
tp2445
a(F0
F104
F733.45001220703125
tp2446
a(F0
F104
F733.75
tp2447
a(F0
F104
F734.04998779296875
tp2448
a(F0
F104
F734.3499755859375
tp2449
a(F0
F104
F734.6500244140625
tp2450
a(F0
F104
F734.95001220703125
tp2451
a(F0
F104
F735.25
tp2452
a(F0
F104
F735.54998779296875
tp2453
a(F0
F104
F735.8499755859375
tp2454
a(F0
F104
F736.1500244140625
tp2455
a(F0
F104
F736.45001220703125
tp2456
a(F0
F104
F736.75
tp2457
a(F0
F104
F737.04998779296875
tp2458
a(F0
F104
F737.3499755859375
tp2459
a(F0
F104
F737.6500244140625
tp2460
a(F0
F104
F737.95001220703125
tp2461
a(F0
F104
F738.25
tp2462
a(F0
F104
F738.54998779296875
tp2463
a(F0
F104
F738.8499755859375
tp2464
a(F0
F104
F739.1500244140625
tp2465
a(F0
F104
F739.45001220703125
tp2466
a(F0
F104
F739.75
tp2467
a(F0
F104
F740.04998779296875
tp2468
a(F0
F104
F740.3499755859375
tp2469
a(F0
F104
F740.6500244140625
tp2470
a(F0
F104
F740.95001220703125
tp2471
a(F0
F104
F741.25
tp2472
a(F0
F104
F741.54998779296875
tp2473
a(F0
F104
F741.8499755859375
tp2474
a(F0
F104
F742.1500244140625
tp2475
a(F0
F104
F742.45001220703125
tp2476
a(F0
F104
F742.75
tp2477
a(F0
F104
F743.04998779296875
tp2478
a(F0
F104
F743.3499755859375
tp2479
a(F0
F104
F743.6500244140625
tp2480
a(F0
F104
F743.95001220703125
tp2481
a(F0
F104
F744.25
tp2482
a(F0
F104
F744.54998779296875
tp2483
a(F0
F104
F744.8499755859375
tp2484
a(F0
F104
F745.1500244140625
tp2485
a(F0
F104
F745.45001220703125
tp2486
a(F0
F104
F745.75
tp2487
a(F0
F104
F746.04998779296875
tp2488
a(F0
F104
F746.3499755859375
tp2489
a(F0
F104
F746.6500244140625
tp2490
a(F0
F104
F746.95001220703125
tp2491
a(F0
F104
F747.25
tp2492
a(F0
F104
F747.54998779296875
tp2493
a(F0
F104
F747.8499755859375
tp2494
a(F0
F104
F748.1500244140625
tp2495
a(F0
F104
F748.45001220703125
tp2496
a(F0
F104
F748.75
tp2497
a(F0
F104
F749.04998779296875
tp2498
a(F0
F104
F749.3499755859375
tp2499
a(F0
F104
F749.6500244140625
tp2500
a(F0
F104
F749.95001220703125
tp2501
a(F0
F104
F750.25
tp2502
a(F0
F104
F750.54998779296875
tp2503
a(F0
F104
F750.8499755859375
tp2504
a(F0
F104
F751.1500244140625
tp2505
a(F0
F104
F751.45001220703125
tp2506
a(F0
F104
F751.75
tp2507
a(F0
F104
F752.04998779296875
tp2508
a(F0
F104
F752.3499755859375
tp2509
a(F0
F104
F752.6500244140625
tp2510
a(F0
F104
F752.95001220703125
tp2511
a(F0
F104
F753.25
tp2512
a(F0
F104
F753.54998779296875
tp2513
a(F0
F104
F753.8499755859375
tp2514
a(F0
F104
F754.1500244140625
tp2515
a(F0
F104
F754.45001220703125
tp2516
a(F0
F104
F754.75
tp2517
a(F0
F104
F755.04998779296875
tp2518
a(F0
F104
F755.3499755859375
tp2519
a(F0
F104
F755.6500244140625
tp2520
a(F0
F104
F755.95001220703125
tp2521
a(F0
F104
F756.25
tp2522
a(F0
F104
F756.54998779296875
tp2523
a(F0
F104
F756.8499755859375
tp2524
a(F0
F104
F757.1500244140625
tp2525
a(F0
F104
F757.45001220703125
tp2526
a(F0
F104
F757.75
tp2527
a(F0
F104
F758.04998779296875
tp2528
a(F0
F104
F758.3499755859375
tp2529
a(F0
F104
F758.6500244140625
tp2530
a(F0
F104
F758.95001220703125
tp2531
a(F0
F104
F759.25
tp2532
a(F0
F104
F759.54998779296875
tp2533
a(F0
F104
F759.8499755859375
tp2534
a(F0
F104
F760.1500244140625
tp2535
a(F0
F104
F760.45001220703125
tp2536
a(F0
F104
F760.75
tp2537
a(F0
F104
F761.04998779296875
tp2538
a(F0
F104
F761.3499755859375
tp2539
a(F0
F104
F761.6500244140625
tp2540
a(F0
F104
F761.95001220703125
tp2541
a(F0
F104
F762.25
tp2542
a(F0
F104
F762.54998779296875
tp2543
a(F0
F104
F762.8499755859375
tp2544
a(F0
F104
F763.1500244140625
tp2545
a(F0
F104
F763.45001220703125
tp2546
a(F0
F104
F763.75
tp2547
a(F0
F104
F764.04998779296875
tp2548
a(F0
F104
F764.3499755859375
tp2549
a(F0
F104
F764.6500244140625
tp2550
a(F0
F104
F764.95001220703125
tp2551
a(F0
F104
F765.25
tp2552
a(F0
F104
F765.54998779296875
tp2553
a(F0
F104
F765.8499755859375
tp2554
a(F0
F104
F766.1500244140625
tp2555
a(F0
F104
F766.45001220703125
tp2556
a(F0
F104
F766.75
tp2557
a(F0
F104
F767.04998779296875
tp2558
a(F0
F104
F767.3499755859375
tp2559
a(F0
F104
F767.6500244140625
tp2560
a(F0
F104
F767.95001220703125
tp2561
a(F0
F104
F768.25
tp2562
a(F0
F104
F768.54998779296875
tp2563
a(F0
F104
F768.8499755859375
tp2564
a(F0
F104
F769.1500244140625
tp2565
a(F0
F104
F769.45001220703125
tp2566
a(F0
F104
F769.75
tp2567
a(F0
F104
F770.04998779296875
tp2568
a(F0
F104
F770.3499755859375
tp2569
a(F0
F104
F770.6500244140625
tp2570
a(F0
F104
F770.95001220703125
tp2571
a(F0
F104
F771.25
tp2572
a(F0
F104
F771.54998779296875
tp2573
a(F0
F104
F771.8499755859375
tp2574
a(F0
F104
F772.1500244140625
tp2575
a(F0
F104
F772.45001220703125
tp2576
a(F0
F104
F772.75
tp2577
a(F0
F104
F773.04998779296875
tp2578
a(F0
F104
F773.3499755859375
tp2579
a(F0
F104
F773.6500244140625
tp2580
a(F0
F104
F773.95001220703125
tp2581
a(F0
F104
F774.25
tp2582
a(F0
F104
F774.54998779296875
tp2583
a(F0
F104
F774.8499755859375
tp2584
a(F0
F104
F775.1500244140625
tp2585
a(F0
F104
F775.45001220703125
tp2586
a(F0
F104
F775.75
tp2587
a(F0
F104
F776.04998779296875
tp2588
a(F0
F104
F776.3499755859375
tp2589
a(F0
F104
F776.6500244140625
tp2590
a(F0
F104
F776.95001220703125
tp2591
a(F0
F104
F777.25
tp2592
a(F0
F104
F777.54998779296875
tp2593
a(F0
F104
F777.8499755859375
tp2594
a(F0
F104
F778.1500244140625
tp2595
a(F0
F104
F778.45001220703125
tp2596
a(F0
F104
F778.75
tp2597
a(F0
F104
F779.04998779296875
tp2598
a(F0
F104
F779.3499755859375
tp2599
a(F0
F104
F779.6500244140625
tp2600
a(F0
F104
F779.95001220703125
tp2601
a(F0
F104
F780.25
tp2602
a(F0
F104
F780.54998779296875
tp2603
a(F0
F104
F780.8499755859375
tp2604
a(F0
F104
F781.1500244140625
tp2605
a(F0
F104
F781.45001220703125
tp2606
a(F0
F104
F781.75
tp2607
a(F0
F104
F782.04998779296875
tp2608
a(F0
F104
F782.3499755859375
tp2609
a(F0
F104
F782.6500244140625
tp2610
a(F0
F104
F782.95001220703125
tp2611
a(F0
F104
F783.25
tp2612
a(F0
F104
F783.54998779296875
tp2613
a(F0
F104
F783.8499755859375
tp2614
a(F0
F104
F784.1500244140625
tp2615
a(F0
F104
F784.45001220703125
tp2616
a(F0
F104
F784.75
tp2617
a(F0
F104
F785.04998779296875
tp2618
a(F0
F104
F785.3499755859375
tp2619
a(F0
F104
F785.6500244140625
tp2620
a(F0
F104
F785.95001220703125
tp2621
a(F0
F104
F786.25
tp2622
a(F0
F104
F786.54998779296875
tp2623
a(F0
F104
F786.8499755859375
tp2624
a(F0
F104
F787.1500244140625
tp2625
a(F0
F104
F787.45001220703125
tp2626
a(F0
F104
F787.75
tp2627
a(F0
F104
F788.04998779296875
tp2628
a(F0
F104
F788.3499755859375
tp2629
a(F0
F104
F788.6500244140625
tp2630
a(F0
F104
F788.95001220703125
tp2631
a(F0
F104
F789.25
tp2632
a(F0
F104
F789.54998779296875
tp2633
a(F0
F104
F789.8499755859375
tp2634
a(F0
F104
F790.1500244140625
tp2635
a(F0
F104
F790.45001220703125
tp2636
a(F0
F104
F790.75
tp2637
a(F0
F104
F791.04998779296875
tp2638
a(F0
F104
F791.3499755859375
tp2639
a(F0
F104
F791.6500244140625
tp2640
a(F0
F104
F791.95001220703125
tp2641
a(F0
F104
F792.25
tp2642
a(F0
F104
F792.54998779296875
tp2643
a(F0
F104
F792.8499755859375
tp2644
a(F0
F104
F793.1500244140625
tp2645
a(F0
F104
F793.45001220703125
tp2646
a(F0
F104
F793.75
tp2647
a(F0
F104
F794.04998779296875
tp2648
a(F0
F104
F794.3499755859375
tp2649
a(F0
F104
F794.6500244140625
tp2650
a(F0
F104
F794.95001220703125
tp2651
a(F0
F104
F795.25
tp2652
a(F0
F104
F795.54998779296875
tp2653
a(F0
F104
F795.8499755859375
tp2654
a(F0
F104
F796.1500244140625
tp2655
a(F0
F104
F796.45001220703125
tp2656
a(F0
F104
F796.75
tp2657
a(F0
F104
F797.04998779296875
tp2658
a(F0
F104
F797.3499755859375
tp2659
a(F0
F104
F797.6500244140625
tp2660
a(F0
F104
F797.95001220703125
tp2661
a(F0
F104
F798.25
tp2662
a(F0
F104
F798.54998779296875
tp2663
a(F0
F104
F798.8499755859375
tp2664
a(F0
F104
F799.1500244140625
tp2665
a(F0
F104
F799.45001220703125
tp2666
a(F0
F104
F799.75
tp2667
a(F0
F104
F800.04998779296875
tp2668
a(F0
F104
F800.3499755859375
tp2669
a(F0
F104
F800.6500244140625
tp2670
a(F0
F104
F800.95001220703125
tp2671
a(F0
F104
F801.25
tp2672
a(F0
F104
F801.54998779296875
tp2673
a(F0
F104
F801.8499755859375
tp2674
a(F0
F104
F802.1500244140625
tp2675
a(F0
F104
F802.45001220703125
tp2676
a(F0
F104
F802.75
tp2677
a(F0
F104
F803.04998779296875
tp2678
a(F0
F104
F803.3499755859375
tp2679
a(F0
F104
F803.6500244140625
tp2680
a(F0
F104
F803.95001220703125
tp2681
a(F0
F104
F804.25
tp2682
a(F0
F104
F804.54998779296875
tp2683
a(F0
F104
F804.8499755859375
tp2684
a(F0
F104
F805.1500244140625
tp2685
a(F0
F104
F805.45001220703125
tp2686
a(F0
F104
F805.75
tp2687
a(F0
F104
F806.04998779296875
tp2688
a(F0
F104
F806.3499755859375
tp2689
a(F0
F104
F806.6500244140625
tp2690
a(F0
F104
F806.95001220703125
tp2691
a(F0
F104
F807.25
tp2692
a(F0
F104
F807.54998779296875
tp2693
a(F0
F104
F807.8499755859375
tp2694
a(F0
F104
F808.1500244140625
tp2695
a(F0
F104
F808.45001220703125
tp2696
a(F0
F104
F808.75
tp2697
a(F0
F104
F809.04998779296875
tp2698
a(F0
F104
F809.3499755859375
tp2699
a(F0
F104
F809.6500244140625
tp2700
a(F0
F104
F809.95001220703125
tp2701
a(F0
F104
F810.25
tp2702
a(F0
F104
F810.54998779296875
tp2703
a(F0
F104
F810.8499755859375
tp2704
a(F0
F104
F811.1500244140625
tp2705
a(F0
F104
F811.45001220703125
tp2706
a(F0
F104
F811.75
tp2707
a(F0
F104
F812.04998779296875
tp2708
a(F0
F104
F812.3499755859375
tp2709
a(F0
F104
F812.6500244140625
tp2710
a(F0
F104
F812.95001220703125
tp2711
a(F0
F104
F813.25
tp2712
a(F0
F104
F813.54998779296875
tp2713
a(F0
F104
F813.8499755859375
tp2714
a(F0
F104
F814.1500244140625
tp2715
a(F0
F104
F814.45001220703125
tp2716
a(F0
F104
F814.75
tp2717
a(F0
F104
F815.04998779296875
tp2718
a(F0
F104
F815.3499755859375
tp2719
a(F0
F104
F815.6500244140625
tp2720
a(F0
F104
F815.95001220703125
tp2721
a(F0
F104
F816.25
tp2722
a(F0
F104
F816.54998779296875
tp2723
a(F0
F104
F816.8499755859375
tp2724
a(F0
F104
F817.1500244140625
tp2725
a(F0
F104
F817.45001220703125
tp2726
a(F0
F104
F817.75
tp2727
a(F0
F104
F818.04998779296875
tp2728
a(F0
F104
F818.3499755859375
tp2729
a(F0
F104
F818.6500244140625
tp2730
a(F0
F104
F818.95001220703125
tp2731
a(F0
F104
F819.25
tp2732
a(F0
F104
F819.54998779296875
tp2733
a(F0
F104
F819.8499755859375
tp2734
a(F0
F104
F820.1500244140625
tp2735
a(F0
F104
F820.45001220703125
tp2736
a(F0
F104
F820.75
tp2737
a(F0
F104
F821.04998779296875
tp2738
a(F0
F104
F821.3499755859375
tp2739
a(F0
F104
F821.6500244140625
tp2740
a(F0
F104
F821.95001220703125
tp2741
a(F0
F104
F822.25
tp2742
a(F0
F104
F822.54998779296875
tp2743
a(F0
F104
F822.8499755859375
tp2744
a(F0
F104
F823.1500244140625
tp2745
a(F0
F104
F823.45001220703125
tp2746
a(F0
F104
F823.75
tp2747
a(F0
F104
F824.04998779296875
tp2748
a(F0
F104
F824.3499755859375
tp2749
a(F0
F104
F824.6500244140625
tp2750
a(F0
F104
F824.95001220703125
tp2751
a(F0
F104
F825.25
tp2752
a(F0
F104
F825.54998779296875
tp2753
a(F0
F104
F825.8499755859375
tp2754
a(F0
F104
F826.1500244140625
tp2755
a(F0
F104
F826.45001220703125
tp2756
a(F0
F104
F826.75
tp2757
a(F0
F104
F827.04998779296875
tp2758
a(F0
F104
F827.3499755859375
tp2759
a(F0
F104
F827.6500244140625
tp2760
a(F0
F104
F827.95001220703125
tp2761
a(F0
F104
F828.25
tp2762
a(F0
F104
F828.54998779296875
tp2763
a(F0
F104
F828.8499755859375
tp2764
a(F0
F104
F829.1500244140625
tp2765
a(F0
F104
F829.45001220703125
tp2766
a(F0
F104
F829.75
tp2767
a(F0
F104
F830.04998779296875
tp2768
a(F0
F104
F830.3499755859375
tp2769
a(F0
F104
F830.6500244140625
tp2770
a(F0
F104
F830.95001220703125
tp2771
a(F0
F104
F831.25
tp2772
a(F0
F104
F831.54998779296875
tp2773
a(F0
F104
F831.8499755859375
tp2774
a(F0
F104
F832.1500244140625
tp2775
a(F0
F104
F832.45001220703125
tp2776
a(F0
F104
F832.75
tp2777
a(F0
F104
F833.04998779296875
tp2778
a(F0
F104
F833.3499755859375
tp2779
a(F0
F104
F833.6500244140625
tp2780
a(F0
F104
F833.95001220703125
tp2781
a(F0
F104
F834.25
tp2782
a(F0
F104
F834.54998779296875
tp2783
a(F0
F104
F834.8499755859375
tp2784
a(F0
F104
F835.1500244140625
tp2785
a(F0
F104
F835.45001220703125
tp2786
a(F0
F104
F835.75
tp2787
a(F0
F104
F836.04998779296875
tp2788
a(F0
F104
F836.3499755859375
tp2789
a(F0
F104
F836.6500244140625
tp2790
a(F0
F104
F836.95001220703125
tp2791
a(F0
F104
F837.25
tp2792
a(F0
F104
F837.54998779296875
tp2793
a(F0
F104
F837.8499755859375
tp2794
a(F0
F104
F838.1500244140625
tp2795
a(F0
F104
F838.45001220703125
tp2796
a(F0
F104
F838.75
tp2797
a(F0
F104
F839.04998779296875
tp2798
a(F0
F104
F839.3499755859375
tp2799
a(F0
F104
F839.6500244140625
tp2800
a(F0
F104
F839.95001220703125
tp2801
a(F0
F104
F840.25
tp2802
a(F0
F104
F840.54998779296875
tp2803
a(F0
F104
F840.8499755859375
tp2804
a(F0
F104
F841.1500244140625
tp2805
a(F0
F104
F841.45001220703125
tp2806
a(F0
F104
F841.75
tp2807
a(F0
F104
F842.04998779296875
tp2808
a(F0
F104
F842.3499755859375
tp2809
a(F0
F104
F842.6500244140625
tp2810
a(F0
F104
F842.95001220703125
tp2811
a(F0
F104
F843.25
tp2812
a(F0
F104
F843.54998779296875
tp2813
a(F0
F104
F843.8499755859375
tp2814
a(F0
F104
F844.1500244140625
tp2815
a(F0
F104
F844.45001220703125
tp2816
a(F0
F104
F844.75
tp2817
a(F0
F104
F845.04998779296875
tp2818
a(F0
F104
F845.3499755859375
tp2819
a(F0
F104
F845.6500244140625
tp2820
a(F0
F104
F845.95001220703125
tp2821
a(F0
F104
F846.25
tp2822
a(F0
F104
F846.54998779296875
tp2823
a(F0
F104
F846.8499755859375
tp2824
a(F0
F104
F847.1500244140625
tp2825
a(F0
F104
F847.45001220703125
tp2826
a(F0
F104
F847.75
tp2827
a(F0
F104
F848.04998779296875
tp2828
a(F0
F104
F848.3499755859375
tp2829
a(F0
F104
F848.6500244140625
tp2830
a(F0
F104
F848.95001220703125
tp2831
a(F0
F104
F849.25
tp2832
a(F0
F104
F849.54998779296875
tp2833
a(F0
F104
F849.8499755859375
tp2834
a(F0
F104
F850.1500244140625
tp2835
a(F0
F104
F850.45001220703125
tp2836
a(F0
F104
F850.75
tp2837
a(F0
F104
F851.04998779296875
tp2838
a(F0
F104
F851.3499755859375
tp2839
a(F0
F104
F851.6500244140625
tp2840
a(F0
F104
F851.95001220703125
tp2841
a(F0
F104
F852.25
tp2842
a(F0
F104
F852.54998779296875
tp2843
a(F0
F104
F852.8499755859375
tp2844
a(F0
F104
F853.1500244140625
tp2845
a(F0
F104
F853.45001220703125
tp2846
a(F0
F104
F853.75
tp2847
a(F0
F104
F854.04998779296875
tp2848
a(F0
F104
F854.3499755859375
tp2849
a(F0
F104
F854.6500244140625
tp2850
a(F0
F104
F854.95001220703125
tp2851
a(F0
F104
F855.25
tp2852
a(F0
F104
F855.54998779296875
tp2853
a(F0
F104
F855.8499755859375
tp2854
a(F0
F104
F856.1500244140625
tp2855
a(F0
F104
F856.45001220703125
tp2856
a(F0
F104
F856.75
tp2857
a(F0
F104
F857.04998779296875
tp2858
a(F0
F104
F857.3499755859375
tp2859
a(F0
F104
F857.6500244140625
tp2860
a(F0
F104
F857.95001220703125
tp2861
a(F0
F104
F858.25
tp2862
a(F0
F104
F858.54998779296875
tp2863
a(F0
F104
F858.8499755859375
tp2864
a(F0
F104
F859.1500244140625
tp2865
a(F0
F104
F859.45001220703125
tp2866
a(F0
F104
F859.75
tp2867
a(F0
F104
F860.04998779296875
tp2868
a(F0
F104
F860.3499755859375
tp2869
a(F0
F104
F860.6500244140625
tp2870
a(F0
F104
F860.95001220703125
tp2871
a(F0
F104
F861.25
tp2872
a(F0
F104
F861.54998779296875
tp2873
a(F0
F104
F861.8499755859375
tp2874
a(F0
F104
F862.1500244140625
tp2875
a(F0
F104
F862.45001220703125
tp2876
a(F0
F104
F862.75
tp2877
a(F0
F104
F863.04998779296875
tp2878
a(F0
F104
F863.3499755859375
tp2879
a(F0
F104
F863.6500244140625
tp2880
a(F0
F104
F863.95001220703125
tp2881
a(F0
F104
F864.25
tp2882
a(F0
F104
F864.54998779296875
tp2883
a(F0
F104
F864.8499755859375
tp2884
a(F0
F104
F865.1500244140625
tp2885
a(F0
F104
F865.45001220703125
tp2886
a(F0
F104
F865.75
tp2887
a(F0
F104
F866.04998779296875
tp2888
a(F0
F104
F866.3499755859375
tp2889
a(F0
F104
F866.6500244140625
tp2890
a(F0
F104
F866.95001220703125
tp2891
a(F0
F104
F867.25
tp2892
a(F0
F104
F867.54998779296875
tp2893
a(F0
F104
F867.8499755859375
tp2894
a(F0
F104
F868.1500244140625
tp2895
a(F0
F104
F868.45001220703125
tp2896
a(F0
F104
F868.75
tp2897
a(F0
F104
F869.04998779296875
tp2898
a(F0
F104
F869.3499755859375
tp2899
a(F0
F104
F869.6500244140625
tp2900
a(F0
F104
F869.95001220703125
tp2901
a(F0
F104
F870.25
tp2902
a(F0
F104
F870.54998779296875
tp2903
a(F0
F104
F870.8499755859375
tp2904
a(F0
F104
F871.1500244140625
tp2905
a(F0
F104
F871.45001220703125
tp2906
a(F0
F104
F871.75
tp2907
a(F0
F104
F872.04998779296875
tp2908
a(F0
F104
F872.3499755859375
tp2909
a(F0
F104
F872.6500244140625
tp2910
a(F0
F104
F872.95001220703125
tp2911
a(F0
F104
F873.25
tp2912
a(F0
F104
F873.54998779296875
tp2913
a(F0
F104
F873.8499755859375
tp2914
a(F0
F104
F874.1500244140625
tp2915
a(F0
F104
F874.45001220703125
tp2916
a(F0
F104
F874.75
tp2917
a(F0
F104
F875.04998779296875
tp2918
a(F0
F104
F875.3499755859375
tp2919
a(F0
F104
F875.6500244140625
tp2920
a(F0
F104
F875.95001220703125
tp2921
a(F0
F104
F876.25
tp2922
a(F0
F104
F876.54998779296875
tp2923
a(F0
F104
F876.8499755859375
tp2924
a(F0
F104
F877.1500244140625
tp2925
a(F0
F104
F877.45001220703125
tp2926
a(F0
F104
F877.75
tp2927
a(F0
F104
F878.04998779296875
tp2928
a(F0
F104
F878.3499755859375
tp2929
a(F0
F104
F878.6500244140625
tp2930
a(F0
F104
F878.95001220703125
tp2931
a(F0
F104
F879.25
tp2932
a(F0
F104
F879.54998779296875
tp2933
a(F0
F104
F879.8499755859375
tp2934
a(F0
F104
F880.1500244140625
tp2935
a(F0
F104
F880.45001220703125
tp2936
a(F0
F104
F880.75
tp2937
a(F0
F104
F881.04998779296875
tp2938
a(F0
F104
F881.3499755859375
tp2939
a(F0
F104
F881.6500244140625
tp2940
a(F0
F104
F881.95001220703125
tp2941
a(F0
F104
F882.25
tp2942
a(F0
F104
F882.54998779296875
tp2943
a(F0
F104
F882.8499755859375
tp2944
a(F0
F104
F883.1500244140625
tp2945
a(F0
F104
F883.45001220703125
tp2946
a(F0
F104
F883.75
tp2947
a(F0
F104
F884.04998779296875
tp2948
a(F0
F104
F884.3499755859375
tp2949
a(F0
F104
F884.6500244140625
tp2950
a(F0
F104
F884.95001220703125
tp2951
a(F0
F104
F885.25
tp2952
a(F0
F104
F885.54998779296875
tp2953
a(F0
F104
F885.8499755859375
tp2954
a(F0
F104
F886.1500244140625
tp2955
a(F0
F104
F886.45001220703125
tp2956
a(F0
F104
F886.75
tp2957
a(F0
F104
F887.04998779296875
tp2958
a(F0
F104
F887.3499755859375
tp2959
a(F0
F104
F887.6500244140625
tp2960
a(F0
F104
F887.95001220703125
tp2961
a(F0
F104
F888.25
tp2962
a(F0
F104
F888.54998779296875
tp2963
a(F0
F104
F888.8499755859375
tp2964
a(F0
F104
F889.1500244140625
tp2965
a(F0
F104
F889.45001220703125
tp2966
a(F0
F104
F889.75
tp2967
a(F0
F104
F890.04998779296875
tp2968
a(F0
F104
F890.3499755859375
tp2969
a(F0
F104
F890.6500244140625
tp2970
a(F0
F104
F890.95001220703125
tp2971
a(F0
F104
F891.25
tp2972
a(F0
F104
F891.54998779296875
tp2973
a(F0
F104
F891.8499755859375
tp2974
a(F0
F104
F892.1500244140625
tp2975
a(F0
F104
F892.45001220703125
tp2976
a(F0
F104
F892.75
tp2977
a(F0
F104
F893.04998779296875
tp2978
a(F0
F104
F893.3499755859375
tp2979
a(F0
F104
F893.6500244140625
tp2980
a(F0
F104
F893.95001220703125
tp2981
a(F0
F104
F894.25
tp2982
a(F0
F104
F894.54998779296875
tp2983
a(F0
F104
F894.8499755859375
tp2984
a(F0
F104
F895.1500244140625
tp2985
a(F0
F104
F895.45001220703125
tp2986
a(F0
F104
F895.75
tp2987
a(F0
F104
F896.04998779296875
tp2988
a(F0
F104
F896.3499755859375
tp2989
a(F0
F104
F896.6500244140625
tp2990
a(F0
F104
F896.95001220703125
tp2991
a(F0
F104
F897.25
tp2992
a(F0
F104
F897.54998779296875
tp2993
a(F0
F104
F897.8499755859375
tp2994
a(F0
F104
F898.1500244140625
tp2995
a(F0
F104
F898.45001220703125
tp2996
a(F0
F104
F898.75
tp2997
a(F0
F104
F899.04998779296875
tp2998
a(F0
F104
F899.3499755859375
tp2999
a(F0
F104
F899.6500244140625
tp3000
a(F0
F104
F899.95001220703125
tp3001
a(F0
F104
F900.25
tp3002
a(F0
F104
F900.54998779296875
tp3003
a(F0
F104
F900.8499755859375
tp3004
a(F0
F104
F901.1500244140625
tp3005
a(F0
F104
F901.45001220703125
tp3006
a(F0
F104
F901.75
tp3007
a(F0
F104
F902.04998779296875
tp3008
a(F0
F104
F902.3499755859375
tp3009
a(F0
F104
F902.6500244140625
tp3010
a(F0
F104
F902.95001220703125
tp3011
a(F0
F104
F903.25
tp3012
a(F0
F104
F903.54998779296875
tp3013
a(F0
F104
F903.8499755859375
tp3014
a(F0
F104
F904.1500244140625
tp3015
a(F0
F104
F904.45001220703125
tp3016
a(F0
F104
F904.75
tp3017
a(F0
F104
F905.04998779296875
tp3018
a(F0
F104
F905.3499755859375
tp3019
a(F0
F104
F905.6500244140625
tp3020
a(F0
F104
F905.95001220703125
tp3021
a(F0
F104
F906.25
tp3022
a(F0
F104
F906.54998779296875
tp3023
a(F0
F104
F906.8499755859375
tp3024
a(F0
F104
F907.1500244140625
tp3025
a(F0
F104
F907.45001220703125
tp3026
a(F0
F104
F907.75
tp3027
a(F0
F104
F908.04998779296875
tp3028
a(F0
F104
F908.3499755859375
tp3029
a(F0
F104
F908.6500244140625
tp3030
a(F0
F104
F908.95001220703125
tp3031
a(F0
F104
F909.25
tp3032
a(F0
F104
F909.54998779296875
tp3033
a(F0
F104
F909.8499755859375
tp3034
a(F0
F104
F910.1500244140625
tp3035
a(F0
F104
F910.45001220703125
tp3036
a(F0
F104
F910.75
tp3037
a(F0
F104
F911.04998779296875
tp3038
a(F0
F104
F911.3499755859375
tp3039
a(F0
F104
F911.6500244140625
tp3040
a(F0
F104
F911.95001220703125
tp3041
a(F0
F104
F912.25
tp3042
a(F0
F104
F912.54998779296875
tp3043
a(F0
F104
F912.8499755859375
tp3044
a(F0
F104
F913.1500244140625
tp3045
a(F0
F104
F913.45001220703125
tp3046
a(F0
F104
F913.75
tp3047
a(F0
F104
F914.04998779296875
tp3048
a(F0
F104
F914.3499755859375
tp3049
a(F0
F104
F914.6500244140625
tp3050
a(F0
F104
F914.95001220703125
tp3051
a(F0
F104
F915.25
tp3052
a(F0
F104
F915.54998779296875
tp3053
a(F0
F104
F915.8499755859375
tp3054
a(F0
F104
F916.1500244140625
tp3055
a(F0
F104
F916.45001220703125
tp3056
a(F0
F104
F916.75
tp3057
a(F0
F104
F917.04998779296875
tp3058
a(F0
F104
F917.3499755859375
tp3059
a(F0
F104
F917.6500244140625
tp3060
a(F0
F104
F917.95001220703125
tp3061
a(F0
F104
F918.25
tp3062
a(F0
F104
F918.54998779296875
tp3063
a(F0
F104
F918.8499755859375
tp3064
a(F0
F104
F919.1500244140625
tp3065
a(F0
F104
F919.45001220703125
tp3066
a(F0
F104
F919.75
tp3067
a(F0
F104
F920.04998779296875
tp3068
a(F0
F104
F920.3499755859375
tp3069
a(F0
F104
F920.6500244140625
tp3070
a(F0
F104
F920.95001220703125
tp3071
a(F0
F104
F921.25
tp3072
a(F0
F104
F921.54998779296875
tp3073
a(F0
F104
F921.8499755859375
tp3074
a(F0
F104
F922.1500244140625
tp3075
a(F0
F104
F922.45001220703125
tp3076
a(F0
F104
F922.75
tp3077
a(F0
F104
F923.04998779296875
tp3078
a(F0
F104
F923.3499755859375
tp3079
a(F0
F104
F923.6500244140625
tp3080
a(F0
F104
F923.95001220703125
tp3081
a(F0
F104
F924.25
tp3082
a(F0
F104
F924.54998779296875
tp3083
a(F0
F104
F924.8499755859375
tp3084
a(F0
F104
F925.1500244140625
tp3085
a(F0
F104
F925.45001220703125
tp3086
a(F0
F104
F925.75
tp3087
a(F0
F104
F926.04998779296875
tp3088
a(F0
F104
F926.3499755859375
tp3089
a(F0
F104
F926.6500244140625
tp3090
a(F0
F104
F926.95001220703125
tp3091
a(F0
F104
F927.25
tp3092
a(F0
F104
F927.54998779296875
tp3093
a(F0
F104
F927.8499755859375
tp3094
a(F0
F104
F928.1500244140625
tp3095
a(F0
F104
F928.45001220703125
tp3096
a(F0
F104
F928.75
tp3097
a(F0
F104
F929.04998779296875
tp3098
a(F0
F104
F929.3499755859375
tp3099
a(F0
F104
F929.6500244140625
tp3100
a(F0
F104
F929.95001220703125
tp3101
a(F0
F104
F930.25
tp3102
a(F0
F104
F930.54998779296875
tp3103
a(F0
F104
F930.8499755859375
tp3104
a(F0
F104
F931.1500244140625
tp3105
a(F0
F104
F931.45001220703125
tp3106
a(F0
F104
F931.75
tp3107
a(F0
F104
F932.04998779296875
tp3108
a(F0
F104
F932.3499755859375
tp3109
a(F0
F104
F932.6500244140625
tp3110
a(F0
F104
F932.95001220703125
tp3111
a(F0
F104
F933.25
tp3112
a(F0
F104
F933.54998779296875
tp3113
a(F0
F104
F933.8499755859375
tp3114
a(F0
F104
F934.1500244140625
tp3115
a(F0
F104
F934.45001220703125
tp3116
a(F0
F104
F934.75
tp3117
a(F0
F104
F935.04998779296875
tp3118
a(F0
F104
F935.3499755859375
tp3119
a(F0
F104
F935.6500244140625
tp3120
a(F0
F104
F935.95001220703125
tp3121
a(F0
F104
F936.25
tp3122
a(F0
F104
F936.54998779296875
tp3123
a(F0
F104
F936.8499755859375
tp3124
a(F0
F104
F937.1500244140625
tp3125
a(F0
F104
F937.45001220703125
tp3126
a(F0
F104
F937.75
tp3127
a(F0
F104
F938.04998779296875
tp3128
a(F0
F104
F938.3499755859375
tp3129
a(F0
F104
F938.6500244140625
tp3130
a(F0
F104
F938.95001220703125
tp3131
a(F0
F104
F939.25
tp3132
a(F0
F104
F939.54998779296875
tp3133
a(F0
F104
F939.8499755859375
tp3134
a(F0
F104
F940.1500244140625
tp3135
a(F0
F104
F940.45001220703125
tp3136
a(F0
F104
F940.75
tp3137
a(F0
F104
F941.04998779296875
tp3138
a(F0
F104
F941.3499755859375
tp3139
a(F0
F104
F941.6500244140625
tp3140
a(F0
F104
F941.95001220703125
tp3141
a(F0
F104
F942.25
tp3142
a(F0
F104
F942.54998779296875
tp3143
a(F0
F104
F942.8499755859375
tp3144
a(F0
F104
F943.1500244140625
tp3145
a(F0
F104
F943.45001220703125
tp3146
a(F0
F104
F943.75
tp3147
a(F0
F104
F944.04998779296875
tp3148
a(F0
F104
F944.3499755859375
tp3149
a(F0
F104
F944.6500244140625
tp3150
a(F0
F104
F944.95001220703125
tp3151
a(F0
F104
F945.25
tp3152
a(F0
F104
F945.54998779296875
tp3153
a(F0
F104
F945.8499755859375
tp3154
a(F0
F104
F946.1500244140625
tp3155
a(F0
F104
F946.45001220703125
tp3156
a(F0
F104
F946.75
tp3157
a(F0
F104
F947.04998779296875
tp3158
a(F0
F104
F947.3499755859375
tp3159
a(F0
F104
F947.6500244140625
tp3160
a(F0
F104
F947.95001220703125
tp3161
a(F0
F104
F948.25
tp3162
a(F0
F104
F948.54998779296875
tp3163
a(F0
F104
F948.8499755859375
tp3164
a(F0
F104
F949.1500244140625
tp3165
a(F0
F104
F949.45001220703125
tp3166
a(F0
F104
F949.75
tp3167
a(F0
F104
F950.04998779296875
tp3168
a(F0
F104
F950.3499755859375
tp3169
a(F0
F104
F950.6500244140625
tp3170
a(F0
F104
F950.95001220703125
tp3171
a(F0
F104
F951.25
tp3172
a(F0
F104
F951.54998779296875
tp3173
a(F0
F104
F951.8499755859375
tp3174
a(F0
F104
F952.1500244140625
tp3175
a(F0
F104
F952.45001220703125
tp3176
a(F0
F104
F952.75
tp3177
a(F0
F104
F953.04998779296875
tp3178
a(F0
F104
F953.3499755859375
tp3179
a(F0
F104
F953.6500244140625
tp3180
a(F0
F104
F953.95001220703125
tp3181
a(F0
F104
F954.25
tp3182
a(F0
F104
F954.54998779296875
tp3183
a(F0
F104
F954.8499755859375
tp3184
a(F0
F104
F955.1500244140625
tp3185
a(F0
F104
F955.45001220703125
tp3186
a(F0
F104
F955.75
tp3187
a(F0
F104
F956.04998779296875
tp3188
a(F0
F104
F956.3499755859375
tp3189
a(F0
F104
F956.6500244140625
tp3190
a(F0
F104
F956.95001220703125
tp3191
a(F0
F104
F957.25
tp3192
a(F0
F104
F957.54998779296875
tp3193
a(F0
F104
F957.8499755859375
tp3194
a(F0
F104
F958.1500244140625
tp3195
a(F0
F104
F958.45001220703125
tp3196
a(F0
F104
F958.75
tp3197
a(F0
F104
F959.04998779296875
tp3198
a(F0
F104
F959.3499755859375
tp3199
a(F0
F104
F959.6500244140625
tp3200
a(F0
F104
F959.95001220703125
tp3201
a(F0
F104
F960.25
tp3202
a(F0
F104
F960.54998779296875
tp3203
a(F0
F104
F960.8499755859375
tp3204
a(F0
F104
F961.1500244140625
tp3205
a(F0
F104
F961.45001220703125
tp3206
a(F0
F104
F961.75
tp3207
a(F0
F104
F962.04998779296875
tp3208
a(F0
F104
F962.3499755859375
tp3209
a(F0
F104
F962.6500244140625
tp3210
a(F0
F104
F962.95001220703125
tp3211
a(F0
F104
F963.25
tp3212
a(F0
F104
F963.54998779296875
tp3213
a(F0
F104
F963.8499755859375
tp3214
a(F0
F104
F964.1500244140625
tp3215
a(F0
F104
F964.45001220703125
tp3216
a(F0
F104
F964.75
tp3217
a(F0
F104
F965.04998779296875
tp3218
a(F0
F104
F965.3499755859375
tp3219
a(F0
F104
F965.6500244140625
tp3220
a(F0
F104
F965.95001220703125
tp3221
a(F0
F104
F966.25
tp3222
a(F0
F104
F966.54998779296875
tp3223
a(F0
F104
F966.8499755859375
tp3224
a(F0
F104
F967.1500244140625
tp3225
a(F0
F104
F967.45001220703125
tp3226
a(F0
F104
F967.75
tp3227
a(F0
F104
F968.04998779296875
tp3228
a(F0
F104
F968.3499755859375
tp3229
a(F0
F104
F968.6500244140625
tp3230
a(F0
F104
F968.95001220703125
tp3231
a(F0
F104
F969.25
tp3232
a(F0
F104
F969.54998779296875
tp3233
a(F0
F104
F969.8499755859375
tp3234
a(F0
F104
F970.1500244140625
tp3235
a(F0
F104
F970.45001220703125
tp3236
a(F0
F104
F970.75
tp3237
a(F0
F104
F971.04998779296875
tp3238
a(F0
F104
F971.3499755859375
tp3239
a(F0
F104
F971.6500244140625
tp3240
a(F0
F104
F971.95001220703125
tp3241
a(F0
F104
F972.25
tp3242
a(F0
F104
F972.54998779296875
tp3243
a(F0
F104
F972.8499755859375
tp3244
a(F0
F104
F973.1500244140625
tp3245
a(F0
F104
F973.45001220703125
tp3246
a(F0
F104
F973.75
tp3247
a(F0
F104
F974.04998779296875
tp3248
a(F0
F104
F974.3499755859375
tp3249
a(F0
F104
F974.6500244140625
tp3250
a(F0
F104
F974.95001220703125
tp3251
a(F0
F104
F975.25
tp3252
a(F0
F104
F975.54998779296875
tp3253
a(F0
F104
F975.8499755859375
tp3254
a(F0
F104
F976.1500244140625
tp3255
a(F0
F104
F976.45001220703125
tp3256
a(F0
F104
F976.75
tp3257
a(F0
F104
F977.04998779296875
tp3258
a(F0
F104
F977.3499755859375
tp3259
a(F0
F104
F977.6500244140625
tp3260
a(F0
F104
F977.95001220703125
tp3261
a(F0
F104
F978.25
tp3262
a(F0
F104
F978.54998779296875
tp3263
a(F0
F104
F978.8499755859375
tp3264
a(F0
F104
F979.1500244140625
tp3265
a(F0
F104
F979.45001220703125
tp3266
a(F0
F104
F979.75
tp3267
a(F0
F104
F980.04998779296875
tp3268
a(F0
F104
F980.3499755859375
tp3269
a(F0
F104
F980.6500244140625
tp3270
a(F0
F104
F980.95001220703125
tp3271
a(F0
F104
F981.25
tp3272
a(F0
F104
F981.54998779296875
tp3273
a(F0
F104
F981.8499755859375
tp3274
a(F0
F104
F982.1500244140625
tp3275
a(F0
F104
F982.45001220703125
tp3276
a(F0
F104
F982.75
tp3277
a(F0
F104
F983.04998779296875
tp3278
a(F0
F104
F983.3499755859375
tp3279
a(F0
F104
F983.6500244140625
tp3280
a(F0
F104
F983.95001220703125
tp3281
a(F0
F104
F984.25
tp3282
a(F0
F104
F984.54998779296875
tp3283
a(F0
F104
F984.8499755859375
tp3284
a(F0
F104
F985.1500244140625
tp3285
a(F0
F104
F985.45001220703125
tp3286
a(F0
F104
F985.75
tp3287
a(F0
F104
F986.04998779296875
tp3288
a(F0
F104
F986.3499755859375
tp3289
a(F0
F104
F986.6500244140625
tp3290
a(F0
F104
F986.95001220703125
tp3291
a(F0
F104
F987.25
tp3292
a(F0
F104
F987.54998779296875
tp3293
a(F0
F104
F987.8499755859375
tp3294
a(F0
F104
F988.1500244140625
tp3295
a(F0
F104
F988.45001220703125
tp3296
a(F0
F104
F988.75
tp3297
a(F0
F104
F989.04998779296875
tp3298
a(F0
F104
F989.3499755859375
tp3299
a(F0
F104
F989.6500244140625
tp3300
a(F0
F104
F989.95001220703125
tp3301
a(F0
F104
F990.25
tp3302
a(F0
F104
F990.54998779296875
tp3303
a(F0
F104
F990.8499755859375
tp3304
a(F0
F104
F991.1500244140625
tp3305
a(F0
F104
F991.45001220703125
tp3306
a(F0
F104
F991.75
tp3307
a(F0
F104
F992.04998779296875
tp3308
a(F0
F104
F992.3499755859375
tp3309
a(F0
F104
F992.6500244140625
tp3310
a(F0
F104
F992.95001220703125
tp3311
a(F0
F104
F993.25
tp3312
a(F0
F104
F993.54998779296875
tp3313
a(F0
F104
F993.8499755859375
tp3314
a(F0
F104
F994.1500244140625
tp3315
a(F0
F104
F994.45001220703125
tp3316
a(F0
F104
F994.75
tp3317
a(F0
F104
F995.04998779296875
tp3318
a(F0
F104
F995.3499755859375
tp3319
a(F0
F104
F995.6500244140625
tp3320
a(F0
F104
F995.95001220703125
tp3321
a(F0
F104
F996.25
tp3322
a(F0
F104
F996.54998779296875
tp3323
a(F0
F104
F996.8499755859375
tp3324
a(F0
F104
F997.1500244140625
tp3325
a(F0
F104
F997.45001220703125
tp3326
a(F0
F104
F997.75
tp3327
a(F0
F104
F998.04998779296875
tp3328
a(F0
F104
F998.3499755859375
tp3329
a(F0
F104
F998.6500244140625
tp3330
a(F0
F104
F998.95001220703125
tp3331
a(F0
F104
F999.25
tp3332
a(F0
F104
F999.54998779296875
tp3333
a(F0
F104
F999.8499755859375
tp3334
a(F0
F104
F1000.1500244140625
tp3335
a(F0
F104
F1000.4500122070312
tp3336
a(F0
F104
F1000.75
tp3337
a(F0
F104
F1001.0499877929688
tp3338
a(F0
F104
F1001.3499755859375
tp3339
a(F0
F104
F1001.6500244140625
tp3340
a(F0
F104
F1001.9500122070312
tp3341
a(F0
F104
F1002.25
tp3342
a(F0
F104
F1002.5499877929688
tp3343
a(F0
F104
F1002.8499755859375
tp3344
a(F0
F104
F1003.1500244140625
tp3345
a(F0
F104
F1003.4500122070312
tp3346
a(F0
F104
F1003.75
tp3347
a(F0
F104
F1004.0499877929688
tp3348
a(F0
F104
F1004.3499755859375
tp3349
a(F0
F104
F1004.6500244140625
tp3350
a(F0
F104
F1004.9500122070312
tp3351
a(F0
F104
F1005.25
tp3352
a(F0
F104
F1005.5499877929688
tp3353
a(F0
F104
F1005.8499755859375
tp3354
a(F0
F104
F1006.1500244140625
tp3355
a(F0
F104
F1006.4500122070312
tp3356
a(F0
F104
F1006.75
tp3357
a(F0
F104
F1007.0499877929688
tp3358
a(F0
F104
F1007.3499755859375
tp3359
a(F0
F104
F1007.6500244140625
tp3360
a(F0
F104
F1007.9500122070312
tp3361
a(F0
F104
F1008.25
tp3362
a(F0
F104
F1008.5499877929688
tp3363
a(F0
F104
F1008.8499755859375
tp3364
a(F0
F104
F1009.1500244140625
tp3365
a(F0
F104
F1009.4500122070312
tp3366
a(F0
F104
F1009.75
tp3367
a(F0
F104
F1010.0499877929688
tp3368
a(F0
F104
F1010.3499755859375
tp3369
a(F0
F104
F1010.6500244140625
tp3370
a(F0
F104
F1010.9500122070312
tp3371
a(F0
F104
F1011.25
tp3372
a(F0
F104
F1011.5499877929688
tp3373
a(F0
F104
F1011.8499755859375
tp3374
a(F0
F104
F1012.1500244140625
tp3375
a(F0
F104
F1012.4500122070312
tp3376
a(F0
F104
F1012.75
tp3377
a(F0
F104
F1013.0499877929688
tp3378
a(F0
F104
F1013.3499755859375
tp3379
a(F0
F104
F1013.6500244140625
tp3380
a(F0
F104
F1013.9500122070312
tp3381
a(F0
F104
F1014.25
tp3382
a(F0
F104
F1014.5499877929688
tp3383
a(F0
F104
F1014.8499755859375
tp3384
a(F0
F104
F1015.1500244140625
tp3385
a(F0
F104
F1015.4500122070312
tp3386
a(F0
F104
F1015.75
tp3387
a(F0
F104
F1016.0499877929688
tp3388
a(F0
F104
F1016.3499755859375
tp3389
a(F0
F104
F1016.6500244140625
tp3390
a(F0
F104
F1016.9500122070312
tp3391
a(F0
F104
F1017.25
tp3392
a(F0
F104
F1017.5499877929688
tp3393
a(F0
F104
F1017.8499755859375
tp3394
a(F0
F104
F1018.1500244140625
tp3395
a(F0
F104
F1018.4500122070312
tp3396
a(F0
F104
F1018.75
tp3397
a(F0
F104
F1019.0499877929688
tp3398
a(F0
F104
F1019.3499755859375
tp3399
a(F0
F104
F1019.6500244140625
tp3400
a(F0
F104
F1019.9500122070312
tp3401
a(F0
F104
F1020.25
tp3402
a(F0
F104
F1020.5499877929688
tp3403
a(F0
F104
F1020.8499755859375
tp3404
a(F0
F104
F1021.1500244140625
tp3405
a(F0
F104
F1021.4500122070312
tp3406
a(F0
F104
F1021.75
tp3407
a(F0
F104
F1022.0499877929688
tp3408
a(F0
F104
F1022.3499755859375
tp3409
a(F0
F104
F1022.6500244140625
tp3410
a(F0
F104
F1022.9500122070312
tp3411
a(F0
F104
F1023.25
tp3412
a(F0
F104
F1023.5499877929688
tp3413
a(F0
F104
F1023.8499755859375
tp3414
a(F0
F104
F1024.1500244140625
tp3415
a(F0
F104
F1024.449951171875
tp3416
a(F0
F104
F1024.75
tp3417
a(F0
F104
F1025.050048828125
tp3418
a(F0
F104
F1025.3499755859375
tp3419
a(F0
F104
F1025.6500244140625
tp3420
a(F0
F104
F1025.949951171875
tp3421
a(F0
F104
F1026.25
tp3422
a(F0
F104
F1026.550048828125
tp3423
a(F0
F104
F1026.8499755859375
tp3424
a(F0
F104
F1027.1500244140625
tp3425
a(F0
F104
F1027.449951171875
tp3426
a(F0
F104
F1027.75
tp3427
a(F0
F104
F1028.050048828125
tp3428
a(F0
F104
F1028.3499755859375
tp3429
a(F0
F104
F1028.6500244140625
tp3430
a(F0
F104
F1028.949951171875
tp3431
a(F0
F104
F1029.25
tp3432
a(F0
F104
F1029.550048828125
tp3433
a(F0
F104
F1029.8499755859375
tp3434
a(F0
F104
F1030.1500244140625
tp3435
a(F0
F104
F1030.449951171875
tp3436
a(F0
F104
F1030.75
tp3437
a(F0
F104
F1031.050048828125
tp3438
a(F0
F104
F1031.3499755859375
tp3439
a(F0
F104
F1031.6500244140625
tp3440
a(F0
F104
F1031.949951171875
tp3441
a(F0
F104
F1032.25
tp3442
a(F0
F104
F1032.550048828125
tp3443
a(F0
F104
F1032.8499755859375
tp3444
a(F0
F104
F1033.1500244140625
tp3445
a(F0
F104
F1033.449951171875
tp3446
a(F0
F104
F1033.75
tp3447
a(F0
F104
F1034.050048828125
tp3448
a(F0
F104
F1034.3499755859375
tp3449
a(F0
F104
F1034.6500244140625
tp3450
a(F0
F104
F1034.949951171875
tp3451
a(F0
F104
F1035.25
tp3452
a(F0
F104
F1035.550048828125
tp3453
a(F0
F104
F1035.8499755859375
tp3454
a(F0
F104
F1036.1500244140625
tp3455
a(F0
F104
F1036.449951171875
tp3456
a(F0
F104
F1036.75
tp3457
a.