(lp1
(F0
F119.65359477723418
F5.0359999999999996
tp2
a(F0
F119.30717663297686
F5.0359999999999996
tp3
a(F0
F118.96077470470763
F5.0359999999999996
tp4
a(F0
F118.61436711316004
F5.0359999999999996
tp5
a(F0
F118.26795656961843
F5.0359999999999996
tp6
a(F0
F117.9215470406335
F5.0359999999999996
tp7
a(F0
F117.57513691551399
F5.0359999999999996
tp8
a(F0
F117.22872845844337
F5.0359999999999996
tp9
a(F0
F116.88231803525657
F5.0359999999999996
tp10
a(F0
F116.53590671786795
F5.0359999999999996
tp11
a(F0
F116.18949915499917
F5.0359999999999996
tp12
a(F0
F115.84308783761054
F5.0359999999999996
tp13
a(F0
F115.49667637118826
F5.0359999999999996
tp14
a(F0
F115.15026940445405
F5.0359999999999996
tp15
a(F0
F114.80385808706541
F5.0359999999999996
tp16
a(F0
F114.45744617354221
F5.0359999999999996
tp17
a(F0
F114.11103950487528
F5.0359999999999996
tp18
a(F0
F113.76462774038572
F5.0359999999999996
tp19
a(F0
F113.41821597589617
F5.0359999999999996
tp20
a(F0
F113.07180945626288
F5.0359999999999996
tp21
a(F0
F112.72539754273969
F5.0359999999999996
tp22
a(F0
F112.37898577825013
F5.0359999999999996
tp23
a(F0
F112.03257940765047
F5.0359999999999996
tp24
a(F0
F111.68616734509364
F5.0359999999999996
tp25
a(F0
F111.3397552825368
F5.0359999999999996
tp26
a(F0
F110.99334921000442
F5.0359999999999996
tp27
a(F0
F110.64693714744759
F5.0359999999999996
tp28
a(F0
F110.30052478682346
F5.0359999999999996
tp29
a(F0
F109.95411901235838
F5.0359999999999996
tp30
a(F0
F109.6077068007679
F5.0359999999999996
tp31
a(F0
F109.26129444014377
F5.0359999999999996
tp32
a(F0
F108.91488851664505
F5.0359999999999996
tp33
a(F0
F108.56847630505457
F5.0359999999999996
tp34
a(F0
F108.22206439153138
F5.0359999999999996
tp35
a(F0
F107.87565846803265
F5.0359999999999996
tp36
a(F0
F107.52924610740853
F5.0359999999999996
tp37
a(F0
F107.1828337467844
F5.0359999999999996
tp38
a(F0
F106.83642812135297
F5.0359999999999996
tp39
a(F0
F106.49001576072884
F5.0359999999999996
tp40
a(F0
F106.143603698172
F5.0359999999999996
tp41
a(F0
F105.79719792370692
F5.0359999999999996
tp42
a(F0
F105.45078556308279
F5.0359999999999996
tp43
a(F0
F105.10437320245867
F5.0359999999999996
tp44
a(F0
F104.75796113990182
F5.0359999999999996
tp45
a(F0
F104.4115552164031
F5.0359999999999996
tp46
a(F0
F104.06514285577899
F5.0359999999999996
tp47
a(F0
F103.71873049515486
F5.0359999999999996
tp48
a(F0
F103.37232486972341
F5.0359999999999996
tp49
a(F0
F103.0259125090993
F5.0359999999999996
tp50
a(F0
F102.67950014847517
F5.0359999999999996
tp51
a(F0
F102.33309452304373
F5.0359999999999996
tp52
a(F0
F101.98668216241961
F5.0359999999999996
tp53
a(F0
F101.64026980179548
F5.0359999999999996
tp54
a(F0
F101.2938640273304
F5.0359999999999996
tp55
a(F0
F100.94745166670627
F5.0359999999999996
tp56
a(F0
F100.6010394551158
F5.0359999999999996
tp57
a(F0
F100.25463368065071
F5.0359999999999996
tp58
a(F0
F99.908221320026584
F5.0359999999999996
tp59
a(F0
F99.561808810368831
F5.0359999999999996
tp60
a(F0
F99.215403333971025
F5.0359999999999996
tp61
a(F0
F98.86899112238055
F5.0359999999999996
tp62
a(F0
F98.522578612722782
F5.0359999999999996
tp63
a(F0
F98.176173136324977
F5.0359999999999996
tp64
a(F0
F97.829760626667209
F5.0359999999999996
tp65
a(F0
F97.483348266043095
F5.0359999999999996
tp66
a(F0
F97.136942789645289
F5.0359999999999996
tp67
a(F0
F96.790530279987522
F5.0359999999999996
tp68
a(F0
F96.444117919363407
F5.0359999999999996
tp69
a(F0
F96.097712442965602
F5.0359999999999996
tp70
a(F0
F95.751299933307834
F5.0359999999999996
tp71
a(F0
F95.404887721717358
F5.0359999999999996
tp72
a(F0
F95.058482096285914
F5.0359999999999996
tp73
a(F0
F94.712069586628147
F5.0359999999999996
tp74
a(F0
F94.36565692793674
F5.0359999999999996
tp75
a(F0
F94.019251749606227
F5.0359999999999996
tp76
a(F0
F93.672839538015751
F5.0359999999999996
tp77
a(F0
F93.326426879324345
F5.0359999999999996
tp78
a(F0
F92.980021402926539
F5.0359999999999996
tp79
a(F0
F92.633609042302425
F5.0359999999999996
tp80
a(F0
F92.287196532644657
F5.0359999999999996
tp81
a(F0
F91.94079120528049
F5.0359999999999996
tp82
a(F0
F91.594378695622737
F5.0359999999999996
tp83
a(F0
F91.24796618596497
F5.0359999999999996
tp84
a(F0
F90.901560858600803
F5.0359999999999996
tp85
a(F0
F90.55514834894305
F5.0359999999999996
tp86
a(F0
F90.208735839285282
F5.0359999999999996
tp87
a(F0
F89.862330511921115
F5.0359999999999996
tp88
a(F0
F89.515918002263362
F5.0359999999999996
tp89
a(F0
F89.169505492605595
F5.0359999999999996
tp90
a(F0
F88.823100165241428
F5.0359999999999996
tp91
a(F0
F88.476687655583675
F5.0359999999999996
tp92
a(F0
F88.130275145925907
F5.0359999999999996
tp93
a(F0
F87.783869967595393
F5.0359999999999996
tp94
a(F0
F87.437457308903987
F5.0359999999999996
tp95
a(F0
F87.091044650212581
F5.0359999999999996
tp96
a(F0
F86.744639620915706
F5.0359999999999996
tp97
a(F0
F86.3982269622243
F5.0359999999999996
tp98
a(F0
F86.051814303532893
F5.0359999999999996
tp99
a(F0
F85.705408976168727
F5.0359999999999996
tp100
a(F0
F85.358996615544612
F5.0359999999999996
tp101
a(F0
F85.012583956853206
F5.0359999999999996
tp102
a(F0
F84.666171596229077
F5.0359999999999996
tp103
a(F0
F84.319766268864925
F5.0359999999999996
tp104
a(F0
F83.973353610173518
F5.0359999999999996
tp105
a(F0
F83.62694124954939
F5.0359999999999996
tp106
a(F0
F83.280535922185237
F5.0359999999999996
tp107
a(F0
F82.934123561561108
F5.0359999999999996
tp108
a(F0
F82.587710902869702
F5.0359999999999996
tp109
a(F0
F82.24130557550555
F5.0359999999999996
tp110
a(F0
F81.894892916814143
F5.0359999999999996
tp111
a(F0
F81.548480556190015
F5.0359999999999996
tp112
a(F0
F81.202075228825862
F5.0359999999999996
tp113
a(F0
F80.855662868201733
F5.0359999999999996
tp114
a(F0
F80.509250209510327
F5.0359999999999996
tp115
a(F0
F80.162844733112522
F5.0359999999999996
tp116
a(F0
F79.816432223454768
F5.0359999999999996
tp117
a(F0
F79.47001986283064
F5.0359999999999996
tp118
a(F0
F79.123614535466487
F5.0359999999999996
tp119
a(F0
F78.777202174842358
F5.0359999999999996
tp120
a(F0
F78.430789218083675
F5.0359999999999996
tp121
a(F0
F78.0843841887868
F5.0359999999999996
tp122
a(F0
F77.737971530095393
F5.0359999999999996
tp123
a(F0
F77.391559169471265
F5.0359999999999996
tp124
a(F0
F77.045153991140751
F5.0359999999999996
tp125
a(F0
F76.698741332449345
F5.0359999999999996
tp126
a(F0
F76.352328822791577
F5.0359999999999996
tp127
a(F0
F76.005923644461063
F5.0359999999999996
tp128
a(F0
F75.659511134803296
F5.0359999999999996
tp129
a(F0
F75.31309847611189
F5.0359999999999996
tp130
a(F0
F74.966693297781376
F5.0359999999999996
tp131
a(F0
F74.62028063908997
F5.0359999999999996
tp132
a(F0
F74.273868129432202
F5.0359999999999996
tp133
a(F0
F73.927462951101688
F5.0359999999999996
tp134
a(F0
F73.581050441443921
F5.0359999999999996
tp135
a(F0
F73.234637782752515
F5.0359999999999996
tp136
a(F0
F72.888232306354709
F5.0359999999999996
tp137
a(F0
F72.541819945730595
F5.0359999999999996
tp138
a(F0
F72.195407436072827
F5.0359999999999996
tp139
a(F0
F71.849002257742313
F5.0359999999999996
tp140
a(F0
F71.502589599050907
F5.0359999999999996
tp141
a(F0
F71.15617708939314
F5.0359999999999996
tp142
a(F0
F70.809771911062626
F5.0359999999999996
tp143
a(F0
F70.46335925237122
F5.0359999999999996
tp144
a(F0
F70.116946742713452
F5.0359999999999996
tp145
a(F0
F69.770541266315647
F5.0359999999999996
tp146
a(F0
F69.424128905691532
F5.0359999999999996
tp147
a(F0
F69.077716396033765
F5.0359999999999996
tp148
a(F0
F68.731311068669612
F5.0359999999999996
tp149
a(F0
F68.384898559011845
F5.0359999999999996
tp150
a(F0
F68.038485900320438
F5.0359999999999996
tp151
a(F0
F67.692080871023563
F5.0359999999999996
tp152
a(F0
F67.345668212332157
F5.0359999999999996
tp153
a(F0
F66.99925570267439
F5.0359999999999996
tp154
a(F0
F66.652850524343876
F5.0359999999999996
tp155
a(F0
F66.30643786565247
F5.0359999999999996
tp156
a(F0
F65.960025206961063
F5.0359999999999996
tp157
a(F0
F65.613616512000561
F5.0359999999999996
tp158
a(F0
F65.267207518972782
F5.0359999999999996
tp159
a(F0
F64.920795009315015
F5.0359999999999996
tp160
a(F0
F64.574386016287235
F5.0359999999999996
tp161
a(F0
F64.227977172293095
F5.0359999999999996
tp162
a(F0
F63.881564662635327
F5.0359999999999996
tp163
a(F0
F63.535155818641186
F5.0359999999999996
tp164
a(F0
F63.188746825613407
F5.0359999999999996
tp165
a(F0
F62.842334166922001
F5.0359999999999996
tp166
a(F0
F62.49592532292786
F5.0359999999999996
tp167
a(F0
F62.14951647893372
F5.0359999999999996
tp168
a(F0
F61.803103969275952
F5.0359999999999996
tp169
a(F0
F61.456695125281811
F5.0359999999999996
tp170
a(F0
F61.110282317556766
F5.0359999999999996
tp171
a(F0
F60.763873473562626
F5.0359999999999996
tp172
a(F0
F60.417464629568485
F5.0359999999999996
tp173
a(F0
F60.071052119910718
F5.0359999999999996
tp174
a(F0
F59.724643275916577
F5.0359999999999996
tp175
a(F0
F59.378234282888798
F5.0359999999999996
tp176
a(F0
F59.03182177323103
F5.0359999999999996
tp177
a(F0
F58.68541292923689
F5.0359999999999996
tp178
a(F0
F58.339004085242749
F5.0359999999999996
tp179
a(F0
F57.992591426551343
F5.0359999999999996
tp180
a(F0
F57.646182433523563
F5.0359999999999996
tp181
a(F0
F57.299773589529423
F5.0359999999999996
tp182
a(F0
F56.953361079871655
F5.0359999999999996
tp183
a(F0
F56.606952086843876
F5.0359999999999996
tp184
a(F0
F56.260543242849735
F5.0359999999999996
tp185
a(F0
F55.914130435124683
F5.0359999999999996
tp186
a(F0
F55.567721889197827
F5.0359999999999996
tp187
a(F0
F55.221313045203686
F5.0359999999999996
tp188
a(F0
F54.87490038651228
F5.0359999999999996
tp189
a(F0
F54.52849154251814
F5.0359999999999996
tp190
a(F0
F54.182082698523999
F5.0359999999999996
tp191
a(F0
F53.835669741765308
F5.0359999999999996
tp192
a(F0
F53.489261195838452
F5.0359999999999996
tp193
a(F0
F53.142852351844311
F5.0359999999999996
tp194
a(F0
F52.796439693152905
F5.0359999999999996
tp195
a(F0
F52.45003055109148
F5.0359999999999996
tp196
a(F0
F52.103622005164624
F5.0359999999999996
tp197
a(F0
F51.757209048405933
F5.0359999999999996
tp198
a(F0
F51.410800502479077
F5.0359999999999996
tp199
a(F0
F51.064387843787671
F5.0359999999999996
tp200
a(F0
F50.717978701726246
F5.0359999999999996
tp201
a(F0
F50.37157015579939
F5.0359999999999996
tp202
a(F0
F50.025157497107983
F5.0359999999999996
tp203
a(F0
F49.678748653113843
F5.0359999999999996
tp204
a(F0
F49.332339809119702
F5.0359999999999996
tp205
a(F0
F48.985927150428296
F5.0359999999999996
tp206
a(F0
F48.639518008366871
F5.0359999999999996
tp207
a(F0
F48.293109462440015
F5.0359999999999996
tp208
a(F0
F47.946696803748608
F5.0359999999999996
tp209
a(F0
F47.600287959754468
F5.0359999999999996
tp210
a(F0
F47.253879115760327
F5.0359999999999996
tp211
a(F0
F46.907466457068921
F5.0359999999999996
tp212
a(F0
F46.561057315007496
F5.0359999999999996
tp213
a(F0
F46.21464876908064
F5.0359999999999996
tp214
a(F0
F45.868236110389233
F5.0359999999999996
tp215
a(F0
F45.521827266395093
F5.0359999999999996
tp216
a(F0
F45.175418124333667
F5.0359999999999996
tp217
a(F0
F44.829005763709546
F5.0359999999999996
tp218
a(F0
F44.482596621648121
F5.0359999999999996
tp219
a(F0
F44.13618777765398
F5.0359999999999996
tp220
a(F0
F43.789775417029858
F5.0359999999999996
tp221
a(F0
F43.443366274968433
F5.0359999999999996
tp222
a(F0
F43.096957729041577
F5.0359999999999996
tp223
a(F0
F42.750545070350171
F5.0359999999999996
tp224
a(F0
F42.404135928288746
F5.0359999999999996
tp225
a(F0
F42.057723567664624
F5.0359999999999996
tp226
a(F0
F41.711314723670483
F5.0359999999999996
tp227
a(F0
F41.364905879676343
F5.0359999999999996
tp228
a(F0
F41.018493220984936
F5.0359999999999996
tp229
a(F0
F40.672084078923511
F5.0359999999999996
tp230
a(F0
F40.325675532996655
F5.0359999999999996
tp231
a(F0
F39.979262874305249
F5.0359999999999996
tp232
a(F0
F39.632854030311108
F5.0359999999999996
tp233
a(F0
F39.286445186316968
F5.0359999999999996
tp234
a(F0
F38.940032527625561
F5.0359999999999996
tp235
a(F0
F38.593623683631421
F5.0359999999999996
tp236
a(F0
F38.247214541569996
F5.0359999999999996
tp237
a(F0
F37.900802479013159
F5.0359999999999996
tp238
a(F0
F37.554393336951733
F5.0359999999999996
tp239
a(F0
F37.207984194890308
F5.0359999999999996
tp240
a(F0
F36.861571834266186
F5.0359999999999996
tp241
a(F0
F36.515162990272046
F5.0359999999999996
tp242
a(F0
F36.168754146277905
F5.0359999999999996
tp243
a(F0
F35.822341487586499
F5.0359999999999996
tp244
a(F0
F35.475932345525074
F5.0359999999999996
tp245
a(F0
F35.129523501530933
F5.0359999999999996
tp246
a(F0
F34.783111140906811
F5.0359999999999996
tp247
a(F0
F34.436702296912671
F5.0359999999999996
tp248
a(F0
F34.090291545569897
F5.0359999999999996
tp249
a(F0
F33.743880794227124
F5.0359999999999996
tp250
a(F0
F33.397471950232983
F5.0359999999999996
tp251
a(F0
F33.05106119889021
F5.0359999999999996
tp252
a(F0
F32.704650745614721
F5.0359999999999996
tp253
a(F0
F32.358241603553296
F5.0359999999999996
tp254
a(F0
F32.011830852210522
F5.0359999999999996
tp255
a(F0
F31.665420100867749
F5.0359999999999996
tp256
a(F0
F31.319011256873608
F5.0359999999999996
tp257
a(F0
F30.972600803598116
F5.0359999999999996
tp258
a(F0
F30.626189754188061
F5.0359999999999996
tp259
a(F0
F30.279778853811646
F5.0359999999999996
tp260
a(F0
F29.933370158851147
F5.0359999999999996
tp261
a(F0
F29.586959407508374
F5.0359999999999996
tp262
a(F0
F29.240548656165601
F5.0359999999999996
tp263
a(F0
F28.89413981217146
F5.0359999999999996
tp264
a(F0
F28.547729060828686
F5.0359999999999996
tp265
a(F0
F28.201318309485913
F5.0359999999999996
tp266
a(F0
F27.854909465491772
F5.0359999999999996
tp267
a(F0
F27.50849901221628
F5.0359999999999996
tp268
a(F0
F27.162087962806226
F5.0359999999999996
tp269
a(F0
F26.815679118812085
F5.0359999999999996
tp270
a(F0
F26.469268665536593
F5.0359999999999996
tp271
a(F0
F26.122857616126538
F5.0359999999999996
tp272
a(F0
F25.776448772132397
F5.0359999999999996
tp273
a(F0
F25.430038020789624
F5.0359999999999996
tp274
a(F0
F25.083627120413208
F5.0359999999999996
tp275
a(F0
F24.737216518104077
F5.0359999999999996
tp276
a(F0
F24.390807674109936
F5.0359999999999996
tp277
a(F0
F24.044396922767163
F5.0359999999999996
tp278
a(F0
F23.69798617142439
F5.0359999999999996
tp279
a(F0
F23.351577327430249
F5.0359999999999996
tp280
a(F0
F23.005166576087476
F5.0359999999999996
tp281
a(F0
F22.658755824744702
F5.0359999999999996
tp282
a(F0
F22.312346980750561
F5.0359999999999996
tp283
a(F0
F21.965936080374146
F5.0359999999999996
tp284
a(F0
F21.619525329031372
F5.0359999999999996
tp285
a(F0
F21.273116634070874
F5.0359999999999996
tp286
a(F0
F20.926705733694458
F5.0359999999999996
tp287
a(F0
F20.580295131385327
F5.0359999999999996
tp288
a(F0
F20.233884380042554
F5.0359999999999996
tp289
a(F0
F19.887475387014771
F5.0359999999999996
tp290
a(F0
F19.54106478470564
F5.0359999999999996
tp291
a(F0
F19.194654033362866
F5.0359999999999996
tp292
a(F0
F18.848245189368726
F5.0359999999999996
tp293
a(F0
F18.501834438025952
F5.0359999999999996
tp294
a(F0
F18.155424491323853
F5.0359999999999996
tp295
a(F0
F17.809013889014722
F5.0359999999999996
tp296
a(F0
F17.462604091346265
F5.0359999999999996
tp297
a(F0
F17.116193638070772
F5.0359999999999996
tp298
a(F0
F16.769783542335034
F5.0359999999999996
tp299
a(F0
F16.423373744666577
F5.0359999999999996
tp300
a(F0
F16.076962993323804
F5.0359999999999996
tp301
a(F0
F15.730553046621704
F5.0359999999999996
tp302
a(F0
F15.38414339798689
F5.0359999999999996
tp303
a(F0
F15.037732646644116
F5.0359999999999996
tp304
a(F0
F14.691322699942017
F5.0359999999999996
tp305
a(F0
F14.344912097632886
F5.0359999999999996
tp306
a(F0
F13.998502299964429
F5.0359999999999996
tp307
a(F0
F13.652092502295972
F5.0359999999999996
tp308
a(F0
F13.305681750953198
F5.0359999999999996
tp309
a(F0
F12.959271953284741
F5.0359999999999996
tp310
a(F0
F12.612862155616284
F5.0359999999999996
tp311
a(F0
F12.266451404273511
F5.0359999999999996
tp312
a(F0
F11.920041606605054
F5.0359999999999996
tp313
a(F0
F11.57363085526228
F5.0359999999999996
tp314
a(F0
F11.227220908560181
F5.0359999999999996
tp315
a(F0
F10.880811259925366
F5.0359999999999996
tp316
a(F0
F10.53440035954895
F5.0359999999999996
tp317
a(F0
F10.187990710914136
F5.0359999999999996
tp318
a(F0
F9.8415804364085204
F5.0359999999999996
tp319
a(F0
F9.4951700128692629
F5.0359999999999996
tp320
a(F0
F9.14875988739729
F5.0359999999999996
tp321
a(F0
F8.8023500897288329
F5.0359999999999996
tp322
a(F0
F8.4559398152232177
F5.0359999999999996
tp323
a(F0
F8.1095295407176025
F5.0359999999999996
tp324
a(F0
F7.7631191171783449
F5.0359999999999996
tp325
a(F0
F7.4167094685435293
F5.0359999999999996
tp326
a(F0
F7.0702991940379141
F5.0359999999999996
tp327
a(F0
F6.7238889195322988
F5.0359999999999996
tp328
a(F0
F6.3774788834452627
F5.0359999999999996
tp329
a(F0
F6.031068459906006
F5.0359999999999996
tp330
a(F0
F5.6846585728526113
F5.0359999999999996
tp331
a(F0
F5.3382482983469961
F5.0359999999999996
tp332
a(F0
F4.9918380238413809
F5.0359999999999996
tp333
a(F0
F4.6454279877543447
F5.0359999999999996
tp334
a(F0
F4.2990178324580191
F5.0359999999999996
tp335
a(F0
F3.9526076771616934
F5.0359999999999996
tp336
a(F0
F3.6061975218653677
F5.0359999999999996
tp337
a(F0
F3.2597873069643972
F5.0359999999999996
tp338
a(F0
F2.9133771516680715
F5.0359999999999996
tp339
a(F0
F2.5669670038223265
F5.0359999999999996
tp340
a(F0
F2.2205568410754202
F5.0359999999999996
tp341
a(F0
F1.8741465367454531
F5.0359999999999996
tp342
a(F0
F1.5277365304827688
F5.0359999999999996
tp343
a(F0
F1.1813263155817983
F5.0359999999999996
tp344
a(F0
F0.83491601125183124
F5.0359999999999996
tp345
a(F0
F0.48850612419843653
F5.0359999999999996
tp346
a(F0
F0.1420958496928213
F5.0359999999999996
tp347
a(F0
F-0.20431418639421484
F5.0359999999999996
tp348
a(F0
F-0.55072446089983007
F5.0359999999999996
tp349
a(F0
F-0.8971344969868662
F5.0359999999999996
tp350
a(F0
F-1.2435447714924814
F5.0359999999999996
tp351
a(F0
F-1.5899548075795176
F5.0359999999999996
tp352
a(F0
F-1.9363650820851328
F5.0359999999999996
tp353
a(F0
F-2.282775356590748
F5.0359999999999996
tp354
a(F0
F-2.6291857801300047
F5.0359999999999996
tp355
a(F0
F-2.9755954287648203
F5.0359999999999996
tp356
a(F0
F-3.322005852304077
F5.0359999999999996
tp357
a(F0
F-3.6684159777760508
F5.0359999999999996
tp358
a(F0
F-4.014826252281666
F5.0359999999999996
tp359
a(F0
F-4.3612361989837645
F5.0359999999999996
tp360
a(F0
F-4.7076463244557383
F5.0359999999999996
tp361
a(F0
F-5.0540565989613535
F5.0359999999999996
tp362
a(F0
F-5.4004668734669687
F5.0359999999999996
tp363
a(F0
F-5.746877147972584
F5.0359999999999996
tp364
a(F0
F-6.0932870946746824
F5.0359999999999996
tp365
a(F0
F-6.439696743309498
F5.0359999999999996
tp366
a(F0
F-6.7861076436859129
F5.0359999999999996
tp367
a(F0
F-7.1325172923207285
F5.0359999999999996
tp368
a(F0
F-7.4789280436635019
F5.0359999999999996
tp369
a(F0
F-7.8253379903656004
F5.0359999999999996
tp370
a(F0
F-8.1717476390004151
F5.0359999999999996
tp371
a(F0
F-8.5181583903431886
F5.0359999999999996
tp372
a(F0
F-8.8645681880116456
F5.0359999999999996
tp373
a(F0
F-9.210978939354419
F5.0359999999999996
tp374
a(F0
F-9.5573887370228761
F5.0359999999999996
tp375
a(F0
F-9.9037985346913331
F5.0359999999999996
tp376
a(F0
F-10.250209584101391
F5.0359999999999996
tp377
a(F0
F-10.596619083702564
F5.0359999999999996
tp378
a(F0
F-10.943028881371021
F5.0359999999999996
tp379
a(F0
F-11.289439930781079
F5.0359999999999996
tp380
a(F0
F-11.635849430382251
F5.0359999999999996
tp381
a(F0
F-11.982260181725024
F5.0359999999999996
tp382
a(F0
F-12.328669979393482
F5.0359999999999996
tp383
a(F0
F-12.675079777061939
F5.0359999999999996
tp384
a(F0
F-13.021490528404712
F5.0359999999999996
tp385
a(F0
F-13.367900326073169
F5.0359999999999996
tp386
a(F0
F-13.714310123741626
F5.0359999999999996
tp387
a(F0
F-14.060720875084399
F5.0359999999999996
tp388
a(F0
F-14.407131626427173
F5.0359999999999996
tp389
a(F0
F-14.753540470421314
F5.0359999999999996
tp390
a(F0
F-15.099951221764087
F5.0359999999999996
tp391
a(F0
F-15.446362271174145
F5.0359999999999996
tp392
a(F0
F-15.792770817101001
F5.0359999999999996
tp393
a(F0
F-16.139181568443774
F5.0359999999999996
tp394
a(F0
F-16.485592319786548
F5.0359999999999996
tp395
a(F0
F-16.832001163780689
F5.0359999999999996
tp396
a(F0
F-17.178411915123462
F5.0359999999999996
tp397
a(F0
F-17.524822666466235
F5.0359999999999996
tp398
a(F0
F-17.871233417809009
F5.0359999999999996
tp399
a(F0
F-18.217642261803149
F5.0359999999999996
tp400
a(F0
F-18.564052715078642
F5.0359999999999996
tp401
a(F0
F-18.910463764488696
F5.0359999999999996
tp402
a(F0
F-19.256872608482837
F5.0359999999999996
tp403
a(F0
F-19.60328335982561
F5.0359999999999996
tp404
a(F0
F-19.949694111168384
F5.0359999999999996
tp405
a(F0
F-20.296102955162524
F5.0359999999999996
tp406
a(F0
F-20.642513706505298
F5.0359999999999996
tp407
a(F0
F-20.988924457848071
F5.0359999999999996
tp408
a(F0
F-21.335333301842212
F5.0359999999999996
tp409
a(F0
F-21.68174435125227
F5.0359999999999996
tp410
a(F0
F-22.028154804527759
F5.0359999999999996
tp411
a(F0
F-22.374565555870532
F5.0359999999999996
tp412
a(F0
F-22.720974399864673
F5.0359999999999996
tp413
a(F0
F-23.067385151207446
F5.0359999999999996
tp414
a(F0
F-23.41379590255022
F5.0359999999999996
tp415
a(F0
F-23.76020474654436
F5.0359999999999996
tp416
a(F0
F-24.106615497887134
F5.0359999999999996
tp417
a(F0
F-24.453026249229907
F5.0359999999999996
tp418
a(F0
F-24.799435093224048
F5.0359999999999996
tp419
a(F0
F-25.145845844566821
F5.0359999999999996
tp420
a(F0
F-25.492256595909595
F5.0359999999999996
tp421
a(F0
F-25.83866573797102
F5.0359999999999996
tp422
a(F0
F-26.185076191246509
F5.0359999999999996
tp423
a(F0
F-26.531486942589282
F5.0359999999999996
tp424
a(F0
F-26.877895786583423
F5.0359999999999996
tp425
a(F0
F-27.224306537926196
F5.0359999999999996
tp426
a(F0
F-27.57071728926897
F5.0359999999999996
tp427
a(F0
F-27.917128040611743
F5.0359999999999996
tp428
a(F0
F-28.263537182673169
F5.0359999999999996
tp429
a(F0
F-28.609947934015942
F5.0359999999999996
tp430
a(F0
F-28.956358685358715
F5.0359999999999996
tp431
a(F0
F-29.302767231285571
F5.0359999999999996
tp432
a(F0
F-29.649178280695629
F5.0359999999999996
tp433
a(F0
F-29.99558712468977
F5.0359999999999996
tp434
a(F0
F-30.341999783381176
F5.0359999999999996
tp435
a(F0
F-30.688408627375317
F5.0359999999999996
tp436
a(F0
F-31.034817173302173
F5.0359999999999996
tp437
a(F0
F-31.381229831993579
F5.0359999999999996
tp438
a(F0
F-31.727638974055004
F5.0359999999999996
tp439
a(F0
F-32.074047818049145
F5.0359999999999996
tp440
a(F0
F-32.420460476740551
F5.0359999999999996
tp441
a(F0
F-32.766869022667407
F5.0359999999999996
tp442
a(F0
F-33.113277866661548
F5.0359999999999996
tp443
a(F0
F-33.459690823420239
F5.0359999999999996
tp444
a(F0
F-33.806099667414379
F5.0359999999999996
tp445
a(F0
F-34.15250851140852
F5.0359999999999996
tp446
a(F0
F-34.498920872032642
F5.0359999999999996
tp447
a(F0
F-34.845329716026782
F5.0359999999999996
tp448
a(F0
F-35.191742374718189
F5.0359999999999996
tp449
a(F0
F-35.538151516779614
F5.0359999999999996
tp450
a(F0
F-35.884560360773754
F5.0359999999999996
tp451
a(F0
F-36.230972721397876
F5.0359999999999996
tp452
a(F0
F-36.577381565392017
F5.0359999999999996
tp453
a(F0
F-36.923790707453442
F5.0359999999999996
tp454
a(F0
F-37.270203068077564
F5.0359999999999996
tp455
a(F0
F-37.616612210138989
F5.0359999999999996
tp456
a(F0
F-37.963020756065845
F5.0359999999999996
tp457
a(F0
F-38.309433414757251
F5.0359999999999996
tp458
a(F0
F-38.655842556818676
F5.0359999999999996
tp459
a(F0
F-39.002251400812817
F5.0359999999999996
tp460
a(F0
F-39.348664059504223
F5.0359999999999996
tp461
a(F0
F-39.695072605431079
F5.0359999999999996
tp462
a(F0
F-40.04148144942522
F5.0359999999999996
tp463
a(F0
F-40.387894108116626
F5.0359999999999996
tp464
a(F0
F-40.734303250178051
F5.0359999999999996
tp465
a(F0
F-41.080712094172192
F5.0359999999999996
tp466
a(F0
F-41.427124454796314
F5.0359999999999996
tp467
a(F0
F-41.773533298790454
F5.0359999999999996
tp468
a(F0
F-42.119942440851879
F5.0359999999999996
tp469
a(F0
F-42.466354801476001
F5.0359999999999996
tp470
a(F0
F-42.812763943537426
F5.0359999999999996
tp471
a(F0
F-43.159172489464282
F5.0359999999999996
tp472
a(F0
F-43.505585148155689
F5.0359999999999996
tp473
a(F0
F-43.851993992149829
F5.0359999999999996
tp474
a(F0
F-44.19840694890852
F5.0359999999999996
tp475
a(F0
F-44.544815792902661
F5.0359999999999996
tp476
a(F0
F-44.891224338829517
F5.0359999999999996
tp477
a(F0
F-45.237636997520923
F5.0359999999999996
tp478
a(F0
F-45.584045841515064
F5.0359999999999996
tp479
a(F0
F-45.930454983576489
F5.0359999999999996
tp480
a(F0
F-46.276867642267895
F5.0359999999999996
tp481
a(F0
F-46.623276188194751
F5.0359999999999996
tp482
a(F0
F-46.969685330256176
F5.0359999999999996
tp483
a(F0
F-47.316097690880298
F5.0359999999999996
tp484
a(F0
F-47.662506832941723
F5.0359999999999996
tp485
a(F0
F-48.008915676935864
F5.0359999999999996
tp486
a(F0
F-48.35532833562727
F5.0359999999999996
tp487
a(F0
F-48.701736881554126
F5.0359999999999996
tp488
a(F0
F-49.048146023615551
F5.0359999999999996
tp489
a(F0
F-49.394558384239673
F5.0359999999999996
tp490
a(F0
F-49.740967526301098
F5.0359999999999996
tp491
a(F0
F-50.087376072227954
F5.0359999999999996
tp492
a(F0
F-50.433789028986645
F5.0359999999999996
tp493
a(F0
F-50.780197574913501
F5.0359999999999996
tp494
a(F0
F-51.12660656794128
F5.0359999999999996
tp495
a(F0
F-51.473019077599048
F5.0359999999999996
tp496
a(F0
F-51.819427921593189
F5.0359999999999996
tp497
a(F0
F-52.165836914620968
F5.0359999999999996
tp498
a(F0
F-52.512249573312374
F5.0359999999999996
tp499
a(F0
F-52.858658417306515
F5.0359999999999996
tp500
a(F0
F-53.205067261300655
F5.0359999999999996
tp501
a(F0
F-53.551479770958423
F5.0359999999999996
tp502
a(F0
F-53.897888614952564
F5.0359999999999996
tp503
a(F0
F-54.244301422677609
F5.0359999999999996
tp504
a(F0
F-54.590710266671749
F5.0359999999999996
tp505
a(F0
F-54.93711911066589
F5.0359999999999996
tp506
a(F0
F-55.283531620323657
F5.0359999999999996
tp507
a(F0
F-55.629940464317798
F5.0359999999999996
tp508
a(F0
F-55.976349457345577
F5.0359999999999996
tp509
a(F0
F-56.322762116036984
F5.0359999999999996
tp510
a(F0
F-56.669171258098409
F5.0359999999999996
tp511
a(F0
F-57.015579654991626
F5.0359999999999996
tp512
a(F0
F-57.361992462716671
F5.0359999999999996
tp513
a(F0
F-57.708401157677173
F5.0359999999999996
tp514
a(F0
F-58.054810150704952
F5.0359999999999996
tp515
a(F0
F-58.401222809396359
F5.0359999999999996
tp516
a(F0
F-58.747631653390499
F5.0359999999999996
tp517
a(F0
F-59.094040348351001
F5.0359999999999996
tp518
a(F0
F-59.440453156076046
F5.0359999999999996
tp519
a(F0
F-59.786861851036548
F5.0359999999999996
tp520
a(F0
F-60.133270844064327
F5.0359999999999996
tp521
a(F0
F-60.479683502755734
F5.0359999999999996
tp522
a(F0
F-60.826092346749874
F5.0359999999999996
tp523
a(F0
F-61.172501041710376
F5.0359999999999996
tp524
a(F0
F-61.518910034738155
F5.0359999999999996
tp525
a(F0
F-61.865322693429562
F5.0359999999999996
tp526
a(F0
F-62.211735203087329
F5.0359999999999996
tp527
a(F0
F-62.558140232384204
F5.0359999999999996
tp528
a(F0
F-62.904553040109249
F5.0359999999999996
tp529
a(F0
F-63.250965698800655
F5.0359999999999996
tp530
a(F0
F-63.59737072809753
F5.0359999999999996
tp531
a(F0
F-63.943783237755298
F5.0359999999999996
tp532
a(F0
F-64.290195896446704
F5.0359999999999996
tp533
a(F0
F-64.636600925743579
F5.0359999999999996
tp534
a(F0
F-64.983013733468624
F5.0359999999999996
tp535
a(F0
F-65.32942639216003
F5.0359999999999996
tp536
a(F0
F-65.675831272423267
F5.0359999999999996
tp537
a(F0
F-66.022243931114673
F5.0359999999999996
tp538
a(F0
F-66.368656738839718
F5.0359999999999996
tp539
a(F0
F-66.715061768136593
F5.0359999999999996
tp540
a(F0
F-67.061474724895291
F5.0359999999999996
tp541
a(F0
F-67.407886936485767
F5.0359999999999996
tp542
a(F0
F-67.754299595177173
F5.0359999999999996
tp543
a(F0
F-68.100704624474048
F5.0359999999999996
tp544
a(F0
F-68.447117432199093
F5.0359999999999996
tp545
a(F0
F-68.793530090890499
F5.0359999999999996
tp546
a(F0
F-69.139935120187374
F5.0359999999999996
tp547
a(F0
F-69.486347629845142
F5.0359999999999996
tp548
a(F0
F-69.832760288536548
F5.0359999999999996
tp549
a(F0
F-70.179165466867062
F5.0359999999999996
tp550
a(F0
F-70.525578125558468
F5.0359999999999996
tp551
a(F0
F-70.871990784249874
F5.0359999999999996
tp552
a(F0
F-71.218395813546749
F5.0359999999999996
tp553
a(F0
F-71.564808472238155
F5.0359999999999996
tp554
a(F0
F-71.911220981895923
F5.0359999999999996
tp555
a(F0
F-72.257626160226437
F5.0359999999999996
tp556
a(F0
F-72.604038669884204
F5.0359999999999996
tp557
a(F0
F-72.95045132857561
F5.0359999999999996
tp558
a(F0
F-73.296856506906124
F5.0359999999999996
tp559
a(F0
F-73.643269016563892
F5.0359999999999996
tp560
a(F0
F-73.989681824288937
F5.0359999999999996
tp561
a(F0
F-74.336086704552173
F5.0359999999999996
tp562
a(F0
F-74.682499363243579
F5.0359999999999996
tp563
a(F0
F-75.028912170968624
F5.0359999999999996
tp564
a(F0
F-75.375317200265499
F5.0359999999999996
tp565
a(F0
F-75.721729858956905
F5.0359999999999996
tp566
a(F0
F-76.068142368614673
F5.0359999999999996
tp567
a(F0
F-76.414547397911548
F5.0359999999999996
tp568
a(F0
F-76.760960056602954
F5.0359999999999996
tp569
a(F0
F-77.107372864327999
F5.0359999999999996
tp570
a(F0
F-77.453777893624874
F5.0359999999999996
tp571
a(F0
F-77.800190403282642
F5.0359999999999996
tp572
a(F0
F-78.146603061974048
F5.0359999999999996
tp573
a(F0
F-78.493008091270923
F5.0359999999999996
tp574
a(F0
F-78.839420898995968
F5.0359999999999996
tp575
a(F0
F-79.185833557687374
F5.0359999999999996
tp576
a(F0
F-79.532238586984249
F5.0359999999999996
tp577
a(F0
F-79.878651096642017
F5.0359999999999996
tp578
a(F0
F-80.225063755333423
F5.0359999999999996
tp579
a(F0
F-80.571468784630298
F5.0359999999999996
tp580
a(F0
F-80.917881592355343
F5.0359999999999996
tp581
a(F0
F-81.26429410201311
F5.0359999999999996
tp582
a(F0
F-81.610699280343624
F5.0359999999999996
tp583
a(F0
F-81.95711193903503
F5.0359999999999996
tp584
a(F0
F-82.303524448692798
F5.0359999999999996
tp585
a(F0
F-82.649929627023312
F5.0359999999999996
tp586
a(F0
F-82.996342136681079
F5.0359999999999996
tp587
a(F0
F-83.342754944406124
F5.0359999999999996
tp588
a(F0
F-83.689159973702999
F5.0359999999999996
tp589
a(F0
F-84.035572632394405
F5.0359999999999996
tp590
a(F0
F-84.381985291085812
F5.0359999999999996
tp591
a(F0
F-84.728390171349048
F5.0359999999999996
tp592
a(F0
F-85.074802830040454
F5.0359999999999996
tp593
a(F0
F-85.421215637765499
F5.0359999999999996
tp594
a(F0
F-85.767620667062374
F5.0359999999999996
tp595
a(F0
F-86.11403332575378
F5.0359999999999996
tp596
a(F0
F-86.460445835411548
F5.0359999999999996
tp597
a(F0
F-86.806850864708423
F5.0359999999999996
tp598
a(F0
F-87.153263672433468
F5.0359999999999996
tp599
a(F0
F-87.499676331124874
F5.0359999999999996
tp600
a(F0
F-87.84608898981628
F5.0359999999999996
tp601
a(F0
F-88.192493870079517
F5.0359999999999996
tp602
a(F0
F-88.538906528770923
F5.0359999999999996
tp603
a(F0
F-88.885319187462329
F5.0359999999999996
tp604
a(F0
F-89.231724365792843
F5.0359999999999996
tp605
a(F0
F-89.578137024484249
F5.0359999999999996
tp606
a(F0
F-89.924549534142017
F5.0359999999999996
tp607
a(F0
F-90.27095471247253
F5.0359999999999996
tp608
a(F0
F-90.617367222130298
F5.0359999999999996
tp609
a(F0
F-90.963779880821704
F5.0359999999999996
tp610
a(F0
F-91.310185059152218
F5.0359999999999996
tp611
a(F0
F-91.656597717843624
F5.0359999999999996
tp612
a(F0
F-92.003010227501392
F5.0359999999999996
tp613
a(F0
F-92.349415405831905
F5.0359999999999996
tp614
a(F0
F-92.695827915489673
F5.0359999999999996
tp615
a(F0
F-93.042240723214718
F5.0359999999999996
tp616
a(F0
F-93.388645603477954
F5.0359999999999996
tp617
a(F0
F-93.735058411202999
F5.0359999999999996
tp618
a(F0
F-94.081470920860767
F5.0359999999999996
tp619
a(F0
F-94.42787609919128
F5.0359999999999996
tp620
a(F0
F-94.774288757882687
F5.0359999999999996
tp621
a(F0
F-95.120701267540454
F5.0359999999999996
tp622
a(F0
F-95.467106296837329
F5.0359999999999996
tp623
a(F0
F-95.813519104562374
F5.0359999999999996
tp624
a(F0
F-96.159931614220142
F5.0359999999999996
tp625
a(F0
F-96.506336792550655
F5.0359999999999996
tp626
a(F0
F-96.852749302208423
F5.0359999999999996
tp627
a(F0
F-97.199162109933468
F5.0359999999999996
tp628
a(F0
F-97.545567139230343
F5.0359999999999996
tp629
a(F0
F-97.891979797921749
F5.0359999999999996
tp630
a(F0
F-98.238392307579517
F5.0359999999999996
tp631
a(F0
F-98.584797336876392
F5.0359999999999996
tp632
a(F0
F-98.931209995567798
F5.0359999999999996
tp633
a(F0
F-99.277622654259204
F5.0359999999999996
tp634
a(F0
F-99.624027832589718
F5.0359999999999996
tp635
a(F0
F-99.970440491281124
F5.0359999999999996
tp636
a(F0
F-100.31685300093889
F5.0359999999999996
tp637
a(F0
F-100.66325817926941
F5.0359999999999996
tp638
a(F0
F-101.00967068892717
F5.0359999999999996
tp639
a(F0
F-101.35608349665222
F5.0359999999999996
tp640
a(F0
F-101.70248852594909
F5.0359999999999996
tp641
a(F0
F-102.0489011846405
F5.0359999999999996
tp642
a(F0
F-102.39531369429827
F5.0359999999999996
tp643
a(F0
F-102.74171887262878
F5.0359999999999996
tp644
a(F0
F-103.08813153132019
F5.0359999999999996
tp645
a(F0
F-103.43454419001159
F5.0359999999999996
tp646
a(F0
F-103.78094921930847
F5.0359999999999996
tp647
a(F0
F-104.12736187799987
F5.0359999999999996
tp648
a(F0
F-104.47377438765764
F5.0359999999999996
tp649
a(F0
F-104.82017956598816
F5.0359999999999996
tp650
a(F0
F-105.16659207564592
F5.0359999999999996
tp651
a(F0
F-105.51300473433733
F5.0359999999999996
tp652
a(F0
F-105.8594097636342
F5.0359999999999996
tp653
a(F0
F-106.20582257135925
F5.0359999999999996
tp654
a(F0
F-106.55223508101702
F5.0359999999999996
tp655
a(F0
F-106.89864773970842
F5.0359999999999996
tp656
a(F0
F-107.2450527690053
F5.0359999999999996
tp657
a(F0
F-107.5914654276967
F5.0359999999999996
tp658
a(F0
F-107.93787823542175
F5.0359999999999996
tp659
a(F0
F-108.28428326471862
F5.0359999999999996
tp660
a(F0
F-108.63069592341003
F5.0359999999999996
tp661
a(F0
F-108.9771084330678
F5.0359999999999996
tp662
a(F0
F-109.32351346236467
F5.0359999999999996
tp663
a(F0
F-109.66992612105608
F5.0359999999999996
tp664
a(F0
F-110.01633892878112
F5.0359999999999996
tp665
a(F0
F-110.362743958078
F5.0359999999999996
tp666
a(F0
F-110.70915646773577
F5.0359999999999996
tp667
a(F0
F-111.05556912642717
F5.0359999999999996
tp668
a(F0
F-111.40197415572405
F5.0359999999999996
tp669
a(F0
F-111.74838681441545
F5.0359999999999996
tp670
a(F0
F-112.0947996221405
F5.0359999999999996
tp671
a(F0
F-112.44120465143737
F5.0359999999999996
tp672
a(F0
F-112.78761716109514
F5.0359999999999996
tp673
a(F0
F-113.11668848993236
F5.0359999999999996
tp674
a(F0
F-113.41668835949898
F5.0359999999999996
tp675
a(F0
F-113.71668834161758
F5.0359999999999996
tp676
a(F0
F-114.01668835353851
F5.0359999999999996
tp677
a(F0
F-114.3166883058548
F5.0359999999999996
tp678
a(F0
F-114.61668843032771
F5.0359999999999996
tp679
a(F0
F-114.91668832969665
F5.0359999999999996
tp680
a(F0
F-115.21668828201294
F5.0359999999999996
tp681
a(F0
F-115.49330627250671
F5.0359999999999996
tp682
a(F0
F-115.19330608177185
F5.0359999999999996
tp683
a(F0
F-114.89330616591519
F5.0359999999999996
tp684
a(F0
F-114.59330617713928
F5.0359999999999996
tp685
a(F0
F-114.293306224823
F5.0359999999999996
tp686
a(F0
F-113.99330603408814
F5.0359999999999996
tp687
a(F0
F-113.69330632019043
F5.0359999999999996
tp688
a(F0
F-113.39330625532216
F5.0359999999999996
tp689
a(F0
F-113.0933059387207
F5.0359999999999996
tp690
a.