(lp1
(lp2
I670
aI1
aI0
aa(lp3
I669
aI2
aI0
aa(lp4
I668
aI2
aI0
aa(lp5
I667
aI4
aI0
aa(lp6
I666
aI4
aI0
aa(lp7
I665
aI6
aI0
aa(lp8
I664
aI6
aI0
aa(lp9
I663
aI7
aI0
aa(lp10
I662
aI9
aI0
aa(lp11
I661
aI9
aI0
aa(lp12
I660
aI11
aI0
aa(lp13
I659
aI11
aI0
aa(lp14
I658
aI13
aI0
aa(lp15
I657
aI13
aI0
aa(lp16
I656
aI15
aI0
aa(lp17
I655
aI15
aI0
aa(lp18
I654
aI16
aI0
aa(lp19
I653
aI18
aI0
aa(lp20
I652
aI18
aI0
aa(lp21
I651
aI20
aI0
aa(lp22
I650
aI20
aI0
aa(lp23
I649
aI22
aI0
aa(lp24
I648
aI22
aI0
aa(lp25
I647
aI24
aI0
aa(lp26
I646
aI24
aI0
aa(lp27
I645
aI25
aI0
aa(lp28
I644
aI27
aI0
aa(lp29
I643
aI27
aI0
aa(lp30
I642
aI29
aI0
aa(lp31
I641
aI29
aI0
aa(lp32
I640
aI30
aI0
aa(lp33
I639
aI32
aI0
aa(lp34
I638
aI32
aI0
aa(lp35
I637
aI34
aI0
aa(lp36
I636
aI34
aI0
aa(lp37
I635
aI35
aI0
aa(lp38
I634
aI37
aI0
aa(lp39
I633
aI37
aI0
aa(lp40
I632
aI39
aI0
aa(lp41
I631
aI39
aI0
aa(lp42
I630
aI41
aI0
aa(lp43
I629
aI41
aI0
aa(lp44
I628
aI43
aI0
aa(lp45
I627
aI43
aI0
aa(lp46
I626
aI44
aI0
aa(lp47
I625
aI46
aI0
aa(lp48
I624
aI46
aI0
aa(lp49
I623
aI48
aI0
aa(lp50
I622
aI48
aI0
aa(lp51
I621
aI49
aI0
aa(lp52
I620
aI51
aI0
aa(lp53
I619
aI51
aI0
aa(lp54
I618
aI53
aI0
aa(lp55
I617
aI53
aI0
aa(lp56
I616
aI54
aI0
aa(lp57
I615
aI56
aI0
aa(lp58
I614
aI56
aI0
aa(lp59
I613
aI58
aI0
aa(lp60
I612
aI58
aI0
aa(lp61
I611
aI60
aI0
aa(lp62
I610
aI60
aI0
aa(lp63
I609
aI62
aI0
aa(lp64
I608
aI62
aI0
aa(lp65
I607
aI63
aI0
aa(lp66
I606
aI65
aI0
aa(lp67
I605
aI65
aI0
aa(lp68
I604
aI67
aI0
aa(lp69
I603
aI67
aI0
aa(lp70
I602
aI68
aI0
aa(lp71
I601
aI70
aI0
aa(lp72
I600
aI70
aI0
aa(lp73
I599
aI72
aI0
aa(lp74
I598
aI72
aI0
aa(lp75
I597
aI73
aI0
aa(lp76
I596
aI75
aI0
aa(lp77
I595
aI75
aI0
aa(lp78
I594
aI77
aI0
aa(lp79
I593
aI77
aI0
aa(lp80
I592
aI79
aI0
aa(lp81
I591
aI79
aI0
aa(lp82
I590
aI81
aI0
aa(lp83
I589
aI81
aI0
aa(lp84
I588
aI82
aI0
aa(lp85
I587
aI84
aI0
aa(lp86
I586
aI84
aI0
aa(lp87
I585
aI86
aI0
aa(lp88
I584
aI86
aI0
aa(lp89
I583
aI88
aI0
aa(lp90
I582
aI88
aI0
aa(lp91
I581
aI90
aI0
aa(lp92
I580
aI90
aI0
aa(lp93
I579
aI91
aI0
aa(lp94
I578
aI93
aI0
aa(lp95
I577
aI93
aI0
aa(lp96
I576
aI95
aI0
aa(lp97
I575
aI95
aI0
aa(lp98
I574
aI97
aI0
aa(lp99
I573
aI97
aI0
aa(lp100
I572
aI99
aI0
aa(lp101
I571
aI99
aI0
aa(lp102
I570
aI100
aI0
aa(lp103
I569
aI102
aI0
aa(lp104
I568
aI102
aI0
aa(lp105
I567
aI104
aI0
aa(lp106
I566
aI104
aI0
aa(lp107
I565
aI105
aI0
aa(lp108
I564
aI107
aI0
aa(lp109
I563
aI107
aI0
aa(lp110
I562
aI109
aI0
aa(lp111
I561
aI109
aI0
aa(lp112
I560
aI110
aI0
aa(lp113
I559
aI112
aI0
aa(lp114
I558
aI112
aI0
aa(lp115
I557
aI114
aI0
aa(lp116
I556
aI114
aI0
aa(lp117
I555
aI116
aI0
aa(lp118
I554
aI116
aI0
aa(lp119
I553
aI118
aI0
aa(lp120
I552
aI118
aI0
aa(lp121
I551
aI119
aI0
aa(lp122
I550
aI121
aI0
aa(lp123
I549
aI121
aI0
aa(lp124
I548
aI123
aI0
aa(lp125
I547
aI123
aI0
aa(lp126
I546
aI124
aI0
aa(lp127
I545
aI126
aI0
aa(lp128
I544
aI126
aI0
aa(lp129
I543
aI128
aI0
aa(lp130
I542
aI128
aI0
aa(lp131
I541
aI129
aI0
aa(lp132
I540
aI131
aI0
aa(lp133
I539
aI131
aI0
aa(lp134
I538
aI133
aI0
aa(lp135
I537
aI133
aI0
aa(lp136
I536
aI135
aI0
aa(lp137
I535
aI135
aI0
aa(lp138
I534
aI137
aI0
aa(lp139
I533
aI137
aI0
aa(lp140
I532
aI138
aI0
aa(lp141
I531
aI140
aI0
aa(lp142
I530
aI140
aI0
aa(lp143
I529
aI142
aI0
aa(lp144
I528
aI142
aI0
aa(lp145
I527
aI143
aI0
aa(lp146
I526
aI145
aI0
aa(lp147
I525
aI145
aI0
aa(lp148
I524
aI147
aI0
aa(lp149
I523
aI147
aI0
aa(lp150
I522
aI148
aI0
aa(lp151
I521
aI150
aI0
aa(lp152
I520
aI150
aI0
aa(lp153
I519
aI152
aI0
aa(lp154
I518
aI152
aI0
aa(lp155
I517
aI154
aI0
aa(lp156
I516
aI154
aI0
aa(lp157
I515
aI156
aI0
aa(lp158
I514
aI156
aI0
aa(lp159
I513
aI157
aI0
aa(lp160
I512
aI159
aI0
aa(lp161
I511
aI159
aI0
aa(lp162
I510
aI161
aI0
aa(lp163
I509
aI161
aI0
aa(lp164
I508
aI163
aI0
aa(lp165
I507
aI163
aI0
aa(lp166
I506
aI165
aI0
aa(lp167
I505
aI165
aI0
aa(lp168
I504
aI166
aI0
aa(lp169
I503
aI168
aI0
aa(lp170
I502
aI168
aI0
aa(lp171
I501
aI170
aI0
aa(lp172
I500
aI170
aI0
aa(lp173
I499
aI172
aI0
aa(lp174
I498
aI172
aI0
aa(lp175
I497
aI174
aI0
aa(lp176
I496
aI174
aI0
aa(lp177
I495
aI175
aI0
aa(lp178
I494
aI177
aI0
aa(lp179
I493
aI177
aI0
aa(lp180
I492
aI179
aI0
aa(lp181
I491
aI179
aI0
aa(lp182
I490
aI180
aI0
aa(lp183
I489
aI182
aI0
aa(lp184
I488
aI182
aI0
aa(lp185
I487
aI184
aI0
aa(lp186
I486
aI184
aI0
aa(lp187
I485
aI185
aI0
aa(lp188
I484
aI187
aI0
aa(lp189
I483
aI187
aI0
aa(lp190
I482
aI189
aI0
aa(lp191
I481
aI189
aI0
aa(lp192
I480
aI191
aI0
aa(lp193
I479
aI191
aI0
aa(lp194
I478
aI193
aI0
aa(lp195
I477
aI193
aI0
aa(lp196
I476
aI194
aI0
aa(lp197
I475
aI196
aI0
aa(lp198
I474
aI196
aI0
aa(lp199
I473
aI198
aI0
aa(lp200
I472
aI198
aI0
aa(lp201
I471
aI199
aI0
aa(lp202
I470
aI201
aI0
aa(lp203
I469
aI201
aI0
aa(lp204
I468
aI203
aI0
aa(lp205
I467
aI203
aI0
aa(lp206
I466
aI204
aI0
aa(lp207
I465
aI206
aI0
aa(lp208
I464
aI206
aI0
aa(lp209
I463
aI208
aI0
aa(lp210
I462
aI208
aI0
aa(lp211
I461
aI210
aI0
aa(lp212
I460
aI210
aI0
aa(lp213
I459
aI212
aI0
aa(lp214
I458
aI212
aI0
aa(lp215
I457
aI213
aI0
aa(lp216
I456
aI215
aI0
aa(lp217
I455
aI215
aI0
aa(lp218
I454
aI217
aI0
aa(lp219
I453
aI217
aI0
aa(lp220
I452
aI218
aI0
aa(lp221
I451
aI220
aI0
aa(lp222
I450
aI220
aI0
aa(lp223
I449
aI222
aI0
aa(lp224
I448
aI222
aI0
aa(lp225
I447
aI223
aI0
aa(lp226
I446
aI225
aI0
aa(lp227
I445
aI225
aI0
aa(lp228
I444
aI227
aI0
aa(lp229
I443
aI227
aI0
aa(lp230
I442
aI229
aI0
aa(lp231
I441
aI229
aI0
aa(lp232
I440
aI231
aI0
aa(lp233
I439
aI231
aI0
aa(lp234
I438
aI232
aI0
aa(lp235
I437
aI234
aI0
aa(lp236
I436
aI234
aI0
aa(lp237
I435
aI236
aI0
aa(lp238
I434
aI236
aI0
aa(lp239
I433
aI238
aI0
aa(lp240
I432
aI238
aI0
aa(lp241
I431
aI240
aI0
aa(lp242
I430
aI240
aI0
aa(lp243
I429
aI241
aI0
aa(lp244
I428
aI243
aI0
aa(lp245
I427
aI243
aI0
aa(lp246
I426
aI245
aI0
aa(lp247
I425
aI245
aI0
aa(lp248
I424
aI247
aI0
aa(lp249
I423
aI247
aI0
aa(lp250
I422
aI249
aI0
aa(lp251
I421
aI249
aI0
aa(lp252
I420
aI250
aI0
aa(lp253
I419
aI252
aI0
aa(lp254
I418
aI252
aI0
aa(lp255
I417
aI254
aI0
aa(lp256
I416
aI254
aI0
aa(lp257
I415
aI255
aI0
aa(lp258
I414
aI257
aI0
aa(lp259
I413
aI257
aI0
aa(lp260
I412
aI259
aI0
aa(lp261
I411
aI259
aI0
aa(lp262
I410
aI260
aI0
aa(lp263
I409
aI262
aI0
aa(lp264
I408
aI262
aI0
aa(lp265
I407
aI264
aI0
aa(lp266
I406
aI264
aI0
aa(lp267
I405
aI266
aI0
aa(lp268
I404
aI266
aI0
aa(lp269
I403
aI268
aI0
aa(lp270
I402
aI268
aI0
aa(lp271
I401
aI269
aI0
aa(lp272
I400
aI271
aI0
aa(lp273
I399
aI271
aI0
aa(lp274
I398
aI273
aI0
aa(lp275
I397
aI273
aI0
aa(lp276
I396
aI274
aI0
aa(lp277
I395
aI276
aI0
aa(lp278
I394
aI276
aI0
aa(lp279
I393
aI278
aI0
aa(lp280
I392
aI278
aI0
aa(lp281
I391
aI279
aI0
aa(lp282
I390
aI281
aI0
aa(lp283
I389
aI281
aI0
aa(lp284
I388
aI283
aI0
aa(lp285
I387
aI283
aI0
aa(lp286
I386
aI285
aI0
aa(lp287
I385
aI285
aI0
aa(lp288
I384
aI287
aI0
aa(lp289
I383
aI287
aI0
aa(lp290
I382
aI288
aI0
aa(lp291
I381
aI290
aI0
aa(lp292
I380
aI290
aI0
aa(lp293
I379
aI292
aI0
aa(lp294
I378
aI292
aI0
aa(lp295
I377
aI293
aI0
aa(lp296
I376
aI295
aI0
aa(lp297
I375
aI295
aI0
aa(lp298
I374
aI297
aI0
aa(lp299
I373
aI297
aI0
aa(lp300
I372
aI298
aI0
aa(lp301
I371
aI300
aI0
aa(lp302
I370
aI300
aI0
aa(lp303
I369
aI302
aI0
aa(lp304
I368
aI302
aI0
aa(lp305
I367
aI304
aI0
aa(lp306
I366
aI304
aI0
aa(lp307
I365
aI306
aI0
aa(lp308
I364
aI306
aI0
aa(lp309
I363
aI307
aI0
aa(lp310
I362
aI309
aI0
aa(lp311
I361
aI309
aI0
aa(lp312
I360
aI311
aI0
aa(lp313
I359
aI311
aI0
aa(lp314
I358
aI313
aI0
aa(lp315
I357
aI313
aI0
aa(lp316
I356
aI315
aI0
aa(lp317
I355
aI315
aI0
aa(lp318
I354
aI316
aI0
aa(lp319
I353
aI318
aI0
aa(lp320
I352
aI318
aI0
aa(lp321
I351
aI320
aI0
aa(lp322
I350
aI320
aI0
aa(lp323
I349
aI322
aI0
aa(lp324
I348
aI322
aI0
aa(lp325
I347
aI324
aI0
aa(lp326
I346
aI324
aI0
aa(lp327
I345
aI325
aI0
aa(lp328
I344
aI327
aI0
aa(lp329
I343
aI327
aI0
aa(lp330
I342
aI329
aI0
aa(lp331
I341
aI329
aI0
aa(lp332
I340
aI330
aI0
aa(lp333
I339
aI332
aI0
aa(lp334
I338
aI332
aI0
aa(lp335
I337
aI334
aI0
aa(lp336
I336
aI334
aI0
aa(lp337
I335
aI335
aI0
aa(lp338
I334
aI337
aI0
aa(lp339
I333
aI337
aI0
aa(lp340
I332
aI339
aI0
aa(lp341
I331
aI339
aI0
aa(lp342
I330
aI341
aI0
aa(lp343
I329
aI341
aI0
aa(lp344
I328
aI343
aI0
aa(lp345
I327
aI343
aI0
aa(lp346
I326
aI344
aI0
aa(lp347
I325
aI346
aI0
aa(lp348
I324
aI346
aI0
aa(lp349
I323
aI348
aI0
aa(lp350
I322
aI348
aI0
aa(lp351
I321
aI349
aI0
aa(lp352
I320
aI351
aI0
aa(lp353
I319
aI351
aI0
aa(lp354
I318
aI353
aI0
aa(lp355
I317
aI353
aI0
aa(lp356
I316
aI354
aI0
aa(lp357
I315
aI356
aI0
aa(lp358
I314
aI356
aI0
aa(lp359
I313
aI358
aI0
aa(lp360
I312
aI358
aI0
aa(lp361
I311
aI360
aI0
aa(lp362
I310
aI360
aI0
aa(lp363
I309
aI362
aI0
aa(lp364
I308
aI362
aI0
aa(lp365
I307
aI363
aI0
aa(lp366
I306
aI365
aI0
aa(lp367
I305
aI365
aI0
aa(lp368
I304
aI367
aI0
aa(lp369
I303
aI367
aI0
aa(lp370
I302
aI368
aI0
aa(lp371
I301
aI370
aI0
aa(lp372
I300
aI370
aI0
aa(lp373
I299
aI372
aI0
aa(lp374
I298
aI372
aI0
aa(lp375
I297
aI373
aI0
aa(lp376
I296
aI375
aI0
aa(lp377
I295
aI375
aI0
aa(lp378
I294
aI377
aI0
aa(lp379
I293
aI377
aI0
aa(lp380
I292
aI379
aI0
aa(lp381
I291
aI379
aI0
aa(lp382
I290
aI381
aI0
aa(lp383
I289
aI381
aI0
aa(lp384
I288
aI382
aI0
aa(lp385
I287
aI384
aI0
aa(lp386
I286
aI384
aI0
aa(lp387
I285
aI386
aI0
aa(lp388
I284
aI386
aI0
aa(lp389
I283
aI388
aI0
aa(lp390
I282
aI388
aI0
aa(lp391
I281
aI390
aI0
aa(lp392
I280
aI390
aI0
aa(lp393
I279
aI391
aI0
aa(lp394
I278
aI393
aI0
aa(lp395
I277
aI393
aI0
aa(lp396
I276
aI395
aI0
aa(lp397
I275
aI395
aI0
aa(lp398
I274
aI397
aI0
aa(lp399
I273
aI397
aI0
aa(lp400
I272
aI399
aI0
aa(lp401
I271
aI399
aI0
aa(lp402
I270
aI400
aI0
aa(lp403
I269
aI402
aI0
aa(lp404
I268
aI402
aI0
aa(lp405
I267
aI404
aI0
aa(lp406
I266
aI404
aI0
aa(lp407
I265
aI405
aI0
aa(lp408
I264
aI407
aI0
aa(lp409
I263
aI407
aI0
aa(lp410
I262
aI409
aI0
aa(lp411
I261
aI409
aI0
aa(lp412
I260
aI410
aI0
aa(lp413
I259
aI412
aI0
aa(lp414
I258
aI412
aI0
aa(lp415
I257
aI414
aI0
aa(lp416
I256
aI414
aI0
aa(lp417
I255
aI416
aI0
aa(lp418
I254
aI416
aI0
aa(lp419
I253
aI418
aI0
aa(lp420
I252
aI418
aI0
aa(lp421
I251
aI419
aI0
aa(lp422
I250
aI421
aI0
aa(lp423
I249
aI421
aI0
aa(lp424
I248
aI423
aI0
aa(lp425
I247
aI423
aI0
aa(lp426
I246
aI424
aI0
aa(lp427
I245
aI426
aI0
aa(lp428
I244
aI426
aI0
aa(lp429
I243
aI428
aI0
aa(lp430
I242
aI428
aI0
aa(lp431
I241
aI429
aI0
aa(lp432
I240
aI431
aI0
aa(lp433
I239
aI431
aI0
aa(lp434
I238
aI433
aI0
aa(lp435
I237
aI433
aI0
aa(lp436
I236
aI435
aI0
aa(lp437
I235
aI435
aI0
aa(lp438
I234
aI437
aI0
aa(lp439
I233
aI437
aI0
aa(lp440
I232
aI438
aI0
aa(lp441
I231
aI440
aI0
aa(lp442
I230
aI440
aI0
aa(lp443
I229
aI442
aI0
aa(lp444
I228
aI442
aI0
aa(lp445
I227
aI443
aI0
aa(lp446
I226
aI445
aI0
aa(lp447
I225
aI445
aI0
aa(lp448
I224
aI447
aI0
aa(lp449
I223
aI447
aI0
aa(lp450
I222
aI448
aI0
aa(lp451
I221
aI450
aI0
aa(lp452
I220
aI450
aI0
aa(lp453
I219
aI452
aI0
aa(lp454
I218
aI452
aI0
aa(lp455
I217
aI454
aI0
aa(lp456
I216
aI454
aI0
aa(lp457
I215
aI456
aI0
aa(lp458
I214
aI456
aI0
aa(lp459
I213
aI457
aI0
aa(lp460
I212
aI459
aI0
aa(lp461
I211
aI459
aI0
aa(lp462
I210
aI461
aI0
aa(lp463
I209
aI461
aI0
aa(lp464
I208
aI463
aI0
aa(lp465
I207
aI463
aI0
aa(lp466
I206
aI465
aI0
aa(lp467
I205
aI465
aI0
aa(lp468
I204
aI466
aI0
aa(lp469
I203
aI468
aI0
aa(lp470
I202
aI468
aI0
aa(lp471
I201
aI470
aI0
aa(lp472
I200
aI470
aI0
aa(lp473
I199
aI472
aI0
aa(lp474
I198
aI472
aI0
aa(lp475
I197
aI474
aI0
aa(lp476
I196
aI474
aI0
aa(lp477
I195
aI475
aI0
aa(lp478
I194
aI477
aI0
aa(lp479
I193
aI477
aI0
aa(lp480
I192
aI479
aI0
aa(lp481
I191
aI479
aI0
aa(lp482
I190
aI480
aI0
aa(lp483
I189
aI482
aI0
aa(lp484
I188
aI482
aI0
aa(lp485
I187
aI484
aI0
aa(lp486
I186
aI484
aI0
aa(lp487
I185
aI485
aI0
aa(lp488
I184
aI487
aI0
aa(lp489
I183
aI487
aI0
aa(lp490
I182
aI489
aI0
aa(lp491
I181
aI489
aI0
aa(lp492
I180
aI491
aI0
aa(lp493
I179
aI491
aI0
aa(lp494
I178
aI493
aI0
aa(lp495
I177
aI493
aI0
aa(lp496
I176
aI494
aI0
aa(lp497
I175
aI496
aI0
aa(lp498
I174
aI496
aI0
aa(lp499
I173
aI498
aI0
aa(lp500
I172
aI498
aI0
aa(lp501
I171
aI499
aI0
aa(lp502
I170
aI501
aI0
aa(lp503
I169
aI501
aI0
aa(lp504
I168
aI503
aI0
aa(lp505
I167
aI503
aI0
aa(lp506
I166
aI504
aI0
aa(lp507
I165
aI506
aI0
aa(lp508
I164
aI506
aI0
aa(lp509
I163
aI508
aI0
aa(lp510
I162
aI508
aI0
aa(lp511
I161
aI510
aI0
aa(lp512
I160
aI510
aI0
aa(lp513
I159
aI512
aI0
aa(lp514
I158
aI512
aI0
aa(lp515
I157
aI513
aI0
aa(lp516
I156
aI515
aI0
aa(lp517
I155
aI515
aI0
aa(lp518
I154
aI517
aI0
aa(lp519
I153
aI517
aI0
aa(lp520
I152
aI518
aI0
aa(lp521
I151
aI520
aI0
aa(lp522
I150
aI520
aI0
aa(lp523
I149
aI522
aI0
aa(lp524
I148
aI522
aI0
aa(lp525
I147
aI523
aI0
aa(lp526
I146
aI525
aI0
aa(lp527
I145
aI525
aI0
aa(lp528
I144
aI527
aI0
aa(lp529
I143
aI527
aI0
aa(lp530
I142
aI529
aI0
aa(lp531
I141
aI529
aI0
aa(lp532
I140
aI531
aI0
aa(lp533
I139
aI531
aI0
aa(lp534
I138
aI532
aI0
aa(lp535
I137
aI534
aI0
aa(lp536
I136
aI534
aI0
aa(lp537
I135
aI536
aI0
aa(lp538
I134
aI536
aI0
aa(lp539
I133
aI538
aI0
aa(lp540
I132
aI538
aI0
aa(lp541
I131
aI540
aI0
aa(lp542
I130
aI540
aI0
aa(lp543
I129
aI541
aI0
aa(lp544
I128
aI543
aI0
aa(lp545
I127
aI543
aI0
aa(lp546
I126
aI545
aI0
aa(lp547
I125
aI545
aI0
aa(lp548
I124
aI547
aI0
aa(lp549
I123
aI547
aI0
aa(lp550
I122
aI549
aI0
aa(lp551
I121
aI549
aI0
aa(lp552
I120
aI550
aI0
aa(lp553
I119
aI552
aI0
aa(lp554
I118
aI552
aI0
aa(lp555
I117
aI554
aI0
aa(lp556
I116
aI554
aI0
aa(lp557
I115
aI555
aI0
aa(lp558
I114
aI557
aI0
aa(lp559
I113
aI557
aI0
aa(lp560
I112
aI559
aI0
aa(lp561
I111
aI559
aI0
aa(lp562
I110
aI560
aI0
aa(lp563
I109
aI562
aI0
aa(lp564
I108
aI562
aI0
aa(lp565
I107
aI564
aI0
aa(lp566
I106
aI564
aI0
aa(lp567
I105
aI566
aI0
aa(lp568
I104
aI566
aI0
aa(lp569
I103
aI568
aI0
aa(lp570
I102
aI568
aI0
aa(lp571
I101
aI569
aI0
aa(lp572
I100
aI571
aI0
aa(lp573
I99
aI571
aI0
aa(lp574
I98
aI573
aI0
aa(lp575
I97
aI573
aI0
aa(lp576
I96
aI574
aI0
aa(lp577
I95
aI576
aI0
aa(lp578
I94
aI576
aI0
aa(lp579
I93
aI578
aI0
aa(lp580
I92
aI578
aI0
aa(lp581
I91
aI579
aI0
aa(lp582
I90
aI581
aI0
aa(lp583
I89
aI581
aI0
aa(lp584
I88
aI583
aI0
aa(lp585
I87
aI583
aI0
aa(lp586
I86
aI585
aI0
aa(lp587
I85
aI585
aI0
aa(lp588
I84
aI587
aI0
aa(lp589
I83
aI587
aI0
aa(lp590
I82
aI588
aI0
aa(lp591
I81
aI590
aI0
aa(lp592
I80
aI590
aI0
aa(lp593
I79
aI592
aI0
aa(lp594
I78
aI592
aI0
aa(lp595
I77
aI593
aI0
aa(lp596
I76
aI595
aI0
aa(lp597
I75
aI595
aI0
aa(lp598
I74
aI597
aI0
aa(lp599
I73
aI597
aI0
aa(lp600
I72
aI598
aI0
aa(lp601
I71
aI600
aI0
aa(lp602
I70
aI600
aI0
aa(lp603
I69
aI602
aI0
aa(lp604
I68
aI602
aI0
aa(lp605
I67
aI604
aI0
aa(lp606
I66
aI604
aI0
aa(lp607
I65
aI606
aI0
aa(lp608
I64
aI606
aI0
aa(lp609
I63
aI607
aI0
aa(lp610
I62
aI609
aI0
aa(lp611
I61
aI609
aI0
aa(lp612
I60
aI611
aI0
aa(lp613
I59
aI611
aI0
aa(lp614
I58
aI613
aI0
aa(lp615
I57
aI613
aI0
aa(lp616
I56
aI615
aI0
aa(lp617
I55
aI615
aI0
aa(lp618
I54
aI616
aI0
aa(lp619
I53
aI618
aI0
aa(lp620
I52
aI618
aI0
aa(lp621
I51
aI620
aI0
aa(lp622
I50
aI620
aI0
aa(lp623
I49
aI622
aI0
aa(lp624
I48
aI622
aI0
aa(lp625
I47
aI624
aI0
aa(lp626
I46
aI624
aI0
aa(lp627
I45
aI625
aI0
aa(lp628
I44
aI627
aI0
aa(lp629
I43
aI627
aI0
aa(lp630
I42
aI629
aI0
aa(lp631
I41
aI629
aI0
aa(lp632
I40
aI630
aI0
aa(lp633
I39
aI632
aI0
aa(lp634
I38
aI632
aI0
aa(lp635
I37
aI634
aI0
aa(lp636
I36
aI634
aI0
aa(lp637
I35
aI635
aI0
aa(lp638
I34
aI637
aI0
aa(lp639
I33
aI637
aI0
aa(lp640
I32
aI639
aI0
aa(lp641
I31
aI639
aI0
aa(lp642
I30
aI641
aI0
aa(lp643
I29
aI641
aI0
aa(lp644
I28
aI643
aI0
aa(lp645
I27
aI643
aI0
aa(lp646
I26
aI644
aI0
aa(lp647
I25
aI646
aI0
aa(lp648
I24
aI646
aI0
aa(lp649
I23
aI648
aI0
aa(lp650
I22
aI648
aI0
aa(lp651
I21
aI649
aI0
aa(lp652
I20
aI651
aI0
aa(lp653
I19
aI651
aI0
aa(lp654
I18
aI653
aI0
aa(lp655
I17
aI653
aI0
aa(lp656
I16
aI654
aI0
aa(lp657
I15
aI656
aI0
aa(lp658
I14
aI656
aI0
aa(lp659
I13
aI658
aI0
aa(lp660
I12
aI658
aI0
aa(lp661
I11
aI660
aI0
aa(lp662
I10
aI660
aI0
aa(lp663
I9
aI662
aI0
aa(lp664
I8
aI662
aI0
aa(lp665
I7
aI663
aI0
aa(lp666
I6
aI665
aI0
aa(lp667
I5
aI665
aI0
aa(lp668
I4
aI667
aI0
aa(lp669
I3
aI667
aI0
aa(lp670
I2
aI668
aI0
aa(lp671
I1
aI670
aI0
aa(lp672
I0
aI670
aI0
aa.