(lp1
(I0
I687
I16
tp2
a(I1
I686
I16
tp3
a(I2
I685
I16
tp4
a(I3
I684
I16
tp5
a(I4
I683
I16
tp6
a(I5
I682
I16
tp7
a(I6
I681
I16
tp8
a(I7
I680
I16
tp9
a(I8
I679
I16
tp10
a(I9
I678
I16
tp11
a(I10
I677
I16
tp12
a(I11
I676
I16
tp13
a(I12
I675
I16
tp14
a(I13
I674
I16
tp15
a(I14
I673
I16
tp16
a(I15
I672
I16
tp17
a(I16
I671
I16
tp18
a(I17
I670
I16
tp19
a(I18
I669
I16
tp20
a(I19
I668
I16
tp21
a(I20
I667
I16
tp22
a(I21
I666
I16
tp23
a(I22
I665
I16
tp24
a(I23
I664
I16
tp25
a(I24
I663
I16
tp26
a(I25
I662
I16
tp27
a(I26
I661
I16
tp28
a(I27
I660
I16
tp29
a(I28
I659
I16
tp30
a(I29
I658
I16
tp31
a(I30
I657
I16
tp32
a(I31
I656
I16
tp33
a(I32
I655
I16
tp34
a(I33
I654
I16
tp35
a(I34
I653
I16
tp36
a(I35
I652
I16
tp37
a(I36
I651
I16
tp38
a(I37
I650
I16
tp39
a(I38
I649
I16
tp40
a(I39
I648
I16
tp41
a(I40
I647
I16
tp42
a(I41
I646
I16
tp43
a(I42
I645
I16
tp44
a(I43
I644
I16
tp45
a(I44
I643
I16
tp46
a(I45
I642
I16
tp47
a(I46
I641
I16
tp48
a(I47
I640
I16
tp49
a(I48
I639
I16
tp50
a(I49
I638
I16
tp51
a(I50
I637
I16
tp52
a(I51
I636
I16
tp53
a(I52
I635
I16
tp54
a(I53
I634
I16
tp55
a(I54
I633
I16
tp56
a(I55
I632
I16
tp57
a(I56
I631
I16
tp58
a(I57
I630
I16
tp59
a(I58
I629
I16
tp60
a(I59
I628
I16
tp61
a(I60
I627
I16
tp62
a(I61
I626
I16
tp63
a(I62
I625
I16
tp64
a(I63
I624
I16
tp65
a(I64
I623
I16
tp66
a(I65
I622
I16
tp67
a(I66
I621
I16
tp68
a(I67
I620
I16
tp69
a(I68
I619
I16
tp70
a(I69
I618
I16
tp71
a(I70
I617
I16
tp72
a(I71
I616
I16
tp73
a(I72
I615
I16
tp74
a(I73
I614
I16
tp75
a(I74
I613
I16
tp76
a(I75
I612
I16
tp77
a(I76
I611
I16
tp78
a(I77
I610
I16
tp79
a(I78
I609
I16
tp80
a(I79
I608
I16
tp81
a(I80
I607
I16
tp82
a(I81
I606
I16
tp83
a(I82
I605
I16
tp84
a(I83
I604
I16
tp85
a(I84
I603
I16
tp86
a(I85
I602
I16
tp87
a(I86
I601
I16
tp88
a(I87
I600
I16
tp89
a(I88
I599
I16
tp90
a(I89
I598
I16
tp91
a(I90
I597
I16
tp92
a(I91
I596
I16
tp93
a(I92
I595
I16
tp94
a(I93
I594
I16
tp95
a(I94
I593
I16
tp96
a(I95
I592
I16
tp97
a(I96
I591
I16
tp98
a(I97
I590
I16
tp99
a(I98
I589
I16
tp100
a(I99
I588
I16
tp101
a(I100
I587
I16
tp102
a(I101
I586
I16
tp103
a(I102
I585
I16
tp104
a(I103
I584
I16
tp105
a(I104
I583
I16
tp106
a(I105
I582
I16
tp107
a(I106
I581
I16
tp108
a(I107
I580
I16
tp109
a(I108
I579
I16
tp110
a(I109
I578
I16
tp111
a(I110
I577
I16
tp112
a(I111
I576
I16
tp113
a(I112
I575
I16
tp114
a(I113
I574
I16
tp115
a(I114
I573
I16
tp116
a(I115
I572
I16
tp117
a(I116
I571
I16
tp118
a(I117
I570
I16
tp119
a(I118
I569
I16
tp120
a(I119
I568
I16
tp121
a(I120
I567
I16
tp122
a(I121
I566
I16
tp123
a(I122
I565
I16
tp124
a(I123
I564
I16
tp125
a(I124
I563
I16
tp126
a(I125
I562
I16
tp127
a(I126
I561
I16
tp128
a(I127
I560
I16
tp129
a(I128
I559
I16
tp130
a(I129
I558
I16
tp131
a(I130
I557
I16
tp132
a(I131
I556
I16
tp133
a(I132
I555
I16
tp134
a(I133
I554
I16
tp135
a(I134
I553
I16
tp136
a(I135
I552
I16
tp137
a(I136
I551
I16
tp138
a(I137
I550
I16
tp139
a(I138
I549
I16
tp140
a(I139
I548
I16
tp141
a(I140
I547
I16
tp142
a(I141
I546
I16
tp143
a(I142
I545
I16
tp144
a(I143
I544
I16
tp145
a(I144
I543
I16
tp146
a(I145
I542
I16
tp147
a(I146
I541
I16
tp148
a(I147
I540
I16
tp149
a(I148
I539
I16
tp150
a(I149
I538
I16
tp151
a(I150
I537
I16
tp152
a(I151
I536
I16
tp153
a(I152
I535
I16
tp154
a(I153
I534
I16
tp155
a(I154
I533
I16
tp156
a(I155
I532
I16
tp157
a(I156
I531
I16
tp158
a(I157
I530
I16
tp159
a(I158
I529
I16
tp160
a(I159
I528
I16
tp161
a(I160
I527
I16
tp162
a(I161
I526
I16
tp163
a(I162
I525
I16
tp164
a(I163
I524
I16
tp165
a(I164
I523
I16
tp166
a(I165
I522
I16
tp167
a(I166
I521
I16
tp168
a(I167
I520
I16
tp169
a(I168
I519
I16
tp170
a(I169
I518
I16
tp171
a(I170
I517
I16
tp172
a(I171
I516
I16
tp173
a(I172
I515
I16
tp174
a(I173
I514
I16
tp175
a(I174
I513
I16
tp176
a(I175
I512
I16
tp177
a(I176
I511
I16
tp178
a(I177
I510
I16
tp179
a(I178
I509
I16
tp180
a(I179
I508
I16
tp181
a(I180
I507
I16
tp182
a(I181
I506
I16
tp183
a(I182
I505
I16
tp184
a(I183
I504
I16
tp185
a(I184
I503
I16
tp186
a(I185
I502
I16
tp187
a(I186
I501
I16
tp188
a(I187
I500
I16
tp189
a(I188
I499
I16
tp190
a(I189
I498
I16
tp191
a(I190
I497
I16
tp192
a(I191
I496
I16
tp193
a(I192
I495
I16
tp194
a(I193
I494
I16
tp195
a(I194
I493
I16
tp196
a(I195
I492
I16
tp197
a(I196
I491
I16
tp198
a(I197
I490
I16
tp199
a(I198
I489
I16
tp200
a(I199
I488
I16
tp201
a(I200
I487
I16
tp202
a(I201
I486
I16
tp203
a(I202
I485
I16
tp204
a(I203
I484
I16
tp205
a(I204
I483
I16
tp206
a(I205
I482
I16
tp207
a(I206
I481
I16
tp208
a(I207
I480
I16
tp209
a(I208
I479
I16
tp210
a(I209
I478
I16
tp211
a(I210
I477
I16
tp212
a(I211
I476
I16
tp213
a(I212
I475
I16
tp214
a(I213
I474
I16
tp215
a(I214
I473
I16
tp216
a(I215
I472
I16
tp217
a(I216
I471
I16
tp218
a(I217
I470
I16
tp219
a(I218
I469
I16
tp220
a(I219
I468
I16
tp221
a(I220
I467
I16
tp222
a(I221
I466
I16
tp223
a(I222
I465
I16
tp224
a(I223
I464
I16
tp225
a(I224
I463
I16
tp226
a(I225
I462
I16
tp227
a(I226
I461
I16
tp228
a(I227
I460
I16
tp229
a(I228
I459
I16
tp230
a(I229
I458
I16
tp231
a(I230
I457
I16
tp232
a(I231
I456
I16
tp233
a(I232
I455
I16
tp234
a(I233
I454
I16
tp235
a(I234
I453
I16
tp236
a(I235
I452
I16
tp237
a(I236
I451
I16
tp238
a(I237
I450
I16
tp239
a(I238
I449
I16
tp240
a(I239
I448
I16
tp241
a(I240
I447
I16
tp242
a(I241
I446
I16
tp243
a(I242
I445
I16
tp244
a(I243
I444
I16
tp245
a(I244
I443
I16
tp246
a(I245
I442
I16
tp247
a(I246
I441
I16
tp248
a(I247
I440
I16
tp249
a(I248
I439
I16
tp250
a(I249
I438
I16
tp251
a(I250
I437
I16
tp252
a(I251
I436
I16
tp253
a(I252
I435
I16
tp254
a(I253
I434
I16
tp255
a(I254
I433
I16
tp256
a(I255
I432
I16
tp257
a(I256
I431
I16
tp258
a(I257
I430
I16
tp259
a(I258
I429
I16
tp260
a(I259
I428
I16
tp261
a(I260
I427
I16
tp262
a(I261
I426
I16
tp263
a(I262
I425
I16
tp264
a(I263
I424
I16
tp265
a(I264
I423
I16
tp266
a(I265
I422
I16
tp267
a(I266
I421
I16
tp268
a(I267
I420
I16
tp269
a(I268
I419
I16
tp270
a(I269
I418
I16
tp271
a(I270
I417
I16
tp272
a(I271
I416
I16
tp273
a(I272
I415
I16
tp274
a(I273
I414
I16
tp275
a(I274
I413
I16
tp276
a(I275
I412
I16
tp277
a(I276
I411
I16
tp278
a(I277
I410
I16
tp279
a(I278
I409
I16
tp280
a(I279
I408
I16
tp281
a(I280
I407
I16
tp282
a(I281
I406
I16
tp283
a(I282
I405
I16
tp284
a(I283
I404
I16
tp285
a(I284
I403
I16
tp286
a(I285
I402
I16
tp287
a(I286
I401
I16
tp288
a(I287
I400
I16
tp289
a(I288
I399
I16
tp290
a(I289
I398
I16
tp291
a(I290
I397
I16
tp292
a(I291
I396
I16
tp293
a(I292
I395
I16
tp294
a(I293
I394
I16
tp295
a(I294
I393
I16
tp296
a(I295
I392
I16
tp297
a(I296
I391
I16
tp298
a(I297
I390
I16
tp299
a(I298
I389
I16
tp300
a(I299
I388
I16
tp301
a(I300
I387
I16
tp302
a(I301
I386
I16
tp303
a(I302
I385
I16
tp304
a(I303
I384
I16
tp305
a(I304
I383
I16
tp306
a(I305
I382
I16
tp307
a(I306
I381
I16
tp308
a(I307
I380
I16
tp309
a(I308
I379
I16
tp310
a(I309
I378
I16
tp311
a(I310
I377
I16
tp312
a(I311
I376
I16
tp313
a(I312
I375
I16
tp314
a(I313
I374
I16
tp315
a(I314
I373
I16
tp316
a(I315
I372
I16
tp317
a(I316
I371
I16
tp318
a(I317
I370
I16
tp319
a(I318
I369
I16
tp320
a(I319
I368
I16
tp321
a(I320
I367
I16
tp322
a(I321
I366
I16
tp323
a(I322
I365
I16
tp324
a(I323
I364
I16
tp325
a(I324
I363
I16
tp326
a(I325
I362
I16
tp327
a(I326
I361
I16
tp328
a(I327
I360
I16
tp329
a(I328
I359
I16
tp330
a(I329
I358
I16
tp331
a(I330
I357
I16
tp332
a(I331
I356
I16
tp333
a(I332
I355
I16
tp334
a(I333
I354
I16
tp335
a(I334
I353
I16
tp336
a(I335
I352
I16
tp337
a(I336
I351
I16
tp338
a(I337
I350
I16
tp339
a(I338
I349
I16
tp340
a(I339
I348
I16
tp341
a(I340
I347
I16
tp342
a(I341
I346
I16
tp343
a(I342
I345
I16
tp344
a(I343
I344
I16
tp345
a(I344
I343
I16
tp346
a(I345
I342
I16
tp347
a(I346
I341
I16
tp348
a(I347
I340
I16
tp349
a(I348
I339
I16
tp350
a(I349
I338
I16
tp351
a(I350
I337
I16
tp352
a(I351
I336
I16
tp353
a(I352
I335
I16
tp354
a(I353
I334
I16
tp355
a(I354
I333
I16
tp356
a(I355
I332
I16
tp357
a(I356
I331
I16
tp358
a(I357
I330
I16
tp359
a(I358
I329
I16
tp360
a(I359
I328
I16
tp361
a(I360
I327
I16
tp362
a(I361
I326
I16
tp363
a(I362
I325
I16
tp364
a(I363
I324
I16
tp365
a(I364
I323
I16
tp366
a(I365
I322
I16
tp367
a(I366
I321
I16
tp368
a(I367
I320
I16
tp369
a(I368
I319
I16
tp370
a(I369
I318
I16
tp371
a(I370
I317
I16
tp372
a(I371
I316
I16
tp373
a(I372
I315
I16
tp374
a(I373
I314
I16
tp375
a(I374
I313
I16
tp376
a(I375
I312
I16
tp377
a(I376
I311
I16
tp378
a(I377
I310
I16
tp379
a(I378
I309
I16
tp380
a(I379
I308
I16
tp381
a(I380
I307
I16
tp382
a(I381
I306
I16
tp383
a(I382
I305
I16
tp384
a(I383
I304
I16
tp385
a(I384
I303
I16
tp386
a(I385
I302
I16
tp387
a(I386
I301
I16
tp388
a(I387
I300
I16
tp389
a(I388
I299
I16
tp390
a(I389
I298
I16
tp391
a(I390
I297
I16
tp392
a(I391
I296
I16
tp393
a(I392
I295
I16
tp394
a(I393
I294
I16
tp395
a(I394
I293
I16
tp396
a(I395
I292
I16
tp397
a(I396
I291
I16
tp398
a(I397
I290
I16
tp399
a(I398
I289
I16
tp400
a(I399
I288
I16
tp401
a(I400
I287
I16
tp402
a(I401
I286
I16
tp403
a(I402
I285
I16
tp404
a(I403
I284
I16
tp405
a(I404
I283
I16
tp406
a(I405
I282
I16
tp407
a(I406
I281
I16
tp408
a(I407
I280
I16
tp409
a(I408
I279
I16
tp410
a(I409
I278
I16
tp411
a(I410
I277
I16
tp412
a(I411
I276
I16
tp413
a(I412
I275
I16
tp414
a(I413
I274
I16
tp415
a(I414
I273
I16
tp416
a(I415
I272
I16
tp417
a(I416
I271
I16
tp418
a(I417
I270
I16
tp419
a(I418
I269
I16
tp420
a(I419
I268
I16
tp421
a(I420
I267
I16
tp422
a(I421
I266
I16
tp423
a(I422
I265
I16
tp424
a(I423
I264
I16
tp425
a(I424
I263
I16
tp426
a(I425
I262
I16
tp427
a(I426
I261
I16
tp428
a(I427
I260
I16
tp429
a(I428
I259
I16
tp430
a(I429
I258
I16
tp431
a(I430
I257
I16
tp432
a(I431
I256
I16
tp433
a(I432
I255
I16
tp434
a(I433
I254
I16
tp435
a(I434
I253
I16
tp436
a(I435
I252
I16
tp437
a(I436
I251
I16
tp438
a(I437
I250
I16
tp439
a(I438
I249
I16
tp440
a(I439
I248
I16
tp441
a(I440
I247
I16
tp442
a(I441
I246
I16
tp443
a(I442
I245
I16
tp444
a(I443
I244
I16
tp445
a(I444
I243
I16
tp446
a(I445
I242
I16
tp447
a(I446
I241
I16
tp448
a(I447
I240
I16
tp449
a(I448
I239
I16
tp450
a(I449
I238
I16
tp451
a(I450
I237
I16
tp452
a(I451
I236
I16
tp453
a(I452
I235
I16
tp454
a(I453
I234
I16
tp455
a(I454
I233
I16
tp456
a(I455
I232
I16
tp457
a(I456
I231
I16
tp458
a(I457
I230
I16
tp459
a(I458
I229
I16
tp460
a(I459
I228
I16
tp461
a(I460
I227
I16
tp462
a(I461
I226
I16
tp463
a(I462
I225
I16
tp464
a(I463
I224
I16
tp465
a(I464
I223
I16
tp466
a(I465
I222
I16
tp467
a(I466
I221
I16
tp468
a(I467
I220
I16
tp469
a(I468
I219
I16
tp470
a(I469
I218
I16
tp471
a(I470
I217
I16
tp472
a(I471
I216
I16
tp473
a(I472
I215
I16
tp474
a(I473
I214
I16
tp475
a(I474
I213
I16
tp476
a(I475
I212
I16
tp477
a(I476
I211
I16
tp478
a(I477
I210
I16
tp479
a(I478
I209
I16
tp480
a(I479
I208
I16
tp481
a(I480
I207
I16
tp482
a(I481
I206
I16
tp483
a(I482
I205
I16
tp484
a(I483
I204
I16
tp485
a(I484
I203
I16
tp486
a(I485
I202
I16
tp487
a(I486
I201
I16
tp488
a(I487
I200
I16
tp489
a(I488
I199
I16
tp490
a(I489
I198
I16
tp491
a(I490
I197
I16
tp492
a(I491
I196
I16
tp493
a(I492
I195
I16
tp494
a(I493
I194
I16
tp495
a(I494
I193
I16
tp496
a(I495
I192
I16
tp497
a(I496
I191
I16
tp498
a(I497
I190
I16
tp499
a(I498
I189
I16
tp500
a(I499
I188
I16
tp501
a(I500
I187
I16
tp502
a(I501
I186
I16
tp503
a(I502
I185
I16
tp504
a(I503
I184
I16
tp505
a(I504
I183
I16
tp506
a(I505
I182
I16
tp507
a(I506
I181
I16
tp508
a(I507
I180
I16
tp509
a(I508
I179
I16
tp510
a(I509
I178
I16
tp511
a(I510
I177
I16
tp512
a(I511
I176
I16
tp513
a(I512
I175
I16
tp514
a(I513
I174
I16
tp515
a(I514
I173
I16
tp516
a(I515
I172
I16
tp517
a(I516
I171
I16
tp518
a(I517
I170
I16
tp519
a(I518
I169
I16
tp520
a(I519
I168
I16
tp521
a(I520
I167
I16
tp522
a(I521
I166
I16
tp523
a(I522
I165
I16
tp524
a(I523
I164
I16
tp525
a(I524
I163
I16
tp526
a(I525
I162
I16
tp527
a(I526
I161
I16
tp528
a(I527
I160
I16
tp529
a(I528
I159
I16
tp530
a(I529
I158
I16
tp531
a(I530
I157
I16
tp532
a(I531
I156
I16
tp533
a(I532
I155
I16
tp534
a(I533
I154
I16
tp535
a(I534
I153
I16
tp536
a(I535
I152
I16
tp537
a(I536
I151
I16
tp538
a(I537
I150
I16
tp539
a(I538
I149
I16
tp540
a(I539
I148
I16
tp541
a(I540
I147
I16
tp542
a(I541
I146
I16
tp543
a(I542
I145
I16
tp544
a(I543
I144
I16
tp545
a(I544
I143
I16
tp546
a(I545
I142
I16
tp547
a(I546
I141
I16
tp548
a(I547
I140
I16
tp549
a(I548
I139
I16
tp550
a(I549
I138
I16
tp551
a(I550
I137
I16
tp552
a(I551
I136
I16
tp553
a(I552
I135
I16
tp554
a(I553
I134
I16
tp555
a(I554
I133
I16
tp556
a(I555
I132
I16
tp557
a(I556
I131
I16
tp558
a(I557
I130
I16
tp559
a(I558
I129
I16
tp560
a(I559
I128
I16
tp561
a(I560
I127
I16
tp562
a(I561
I126
I16
tp563
a(I562
I125
I16
tp564
a(I563
I124
I16
tp565
a(I564
I123
I16
tp566
a(I565
I122
I16
tp567
a(I566
I121
I16
tp568
a(I567
I120
I16
tp569
a(I568
I119
I16
tp570
a(I569
I118
I16
tp571
a(I570
I117
I16
tp572
a(I571
I116
I16
tp573
a(I572
I115
I16
tp574
a(I573
I114
I16
tp575
a(I574
I113
I16
tp576
a(I575
I112
I16
tp577
a(I576
I111
I16
tp578
a(I577
I110
I16
tp579
a(I578
I109
I16
tp580
a(I579
I108
I16
tp581
a(I580
I107
I16
tp582
a(I581
I106
I16
tp583
a(I582
I105
I16
tp584
a(I583
I104
I16
tp585
a(I584
I103
I16
tp586
a(I585
I102
I16
tp587
a(I586
I101
I16
tp588
a(I587
I100
I16
tp589
a(I588
I99
I16
tp590
a(I589
I98
I16
tp591
a(I590
I97
I16
tp592
a(I591
I96
I16
tp593
a(I592
I95
I16
tp594
a(I593
I94
I16
tp595
a(I594
I93
I16
tp596
a(I595
I92
I16
tp597
a(I596
I91
I16
tp598
a(I597
I90
I16
tp599
a(I598
I89
I16
tp600
a(I599
I88
I16
tp601
a(I600
I87
I16
tp602
a(I601
I86
I16
tp603
a(I602
I85
I16
tp604
a(I603
I84
I16
tp605
a(I604
I83
I16
tp606
a(I605
I82
I16
tp607
a(I606
I81
I16
tp608
a(I607
I80
I16
tp609
a(I608
I79
I16
tp610
a(I609
I78
I16
tp611
a(I610
I77
I16
tp612
a(I611
I76
I16
tp613
a(I612
I75
I16
tp614
a(I613
I74
I16
tp615
a(I614
I73
I16
tp616
a(I615
I72
I16
tp617
a(I616
I71
I16
tp618
a(I617
I70
I16
tp619
a(I618
I69
I16
tp620
a(I619
I68
I16
tp621
a(I620
I67
I16
tp622
a(I621
I66
I16
tp623
a(I622
I65
I16
tp624
a(I623
I64
I16
tp625
a(I624
I63
I16
tp626
a(I625
I62
I16
tp627
a(I626
I61
I16
tp628
a(I627
I60
I16
tp629
a(I628
I59
I16
tp630
a(I629
I58
I16
tp631
a(I630
I57
I16
tp632
a(I631
I56
I16
tp633
a(I632
I55
I16
tp634
a(I633
I54
I16
tp635
a(I634
I53
I16
tp636
a(I635
I52
I16
tp637
a(I636
I51
I16
tp638
a(I637
I50
I16
tp639
a(I638
I49
I16
tp640
a(I639
I48
I16
tp641
a(I640
I47
I16
tp642
a(I641
I46
I16
tp643
a(I642
I45
I16
tp644
a(I643
I44
I16
tp645
a(I644
I43
I16
tp646
a(I645
I42
I16
tp647
a(I646
I41
I16
tp648
a(I647
I40
I16
tp649
a(I648
I39
I16
tp650
a(I649
I38
I16
tp651
a(I650
I37
I16
tp652
a(I651
I36
I16
tp653
a(I652
I35
I16
tp654
a(I653
I34
I16
tp655
a(I654
I33
I16
tp656
a(I655
I32
I16
tp657
a(I656
I31
I16
tp658
a(I657
I30
I16
tp659
a(I658
I29
I16
tp660
a(I659
I28
I16
tp661
a(I660
I27
I16
tp662
a(I661
I26
I16
tp663
a(I662
I25
I16
tp664
a(I663
I24
I16
tp665
a(I664
I23
I16
tp666
a(I665
I22
I16
tp667
a(I666
I21
I16
tp668
a(I667
I20
I16
tp669
a(I668
I19
I16
tp670
a(I669
I18
I16
tp671
a(I670
I17
I16
tp672
a(I671
I16
I16
tp673
a(I672
I15
I16
tp674
a(I673
I14
I16
tp675
a(I674
I13
I16
tp676
a(I675
I12
I16
tp677
a(I676
I11
I16
tp678
a(I677
I11
I16
tp679
a(I678
I10
I16
tp680
a(I679
I9
I16
tp681
a(I680
I8
I16
tp682
a(I681
I9
I16
tp683
a(I682
I10
I16
tp684
a(I683
I11
I16
tp685
a(I684
I11
I16
tp686
a(I685
I12
I16
tp687
a(I686
I13
I16
tp688
a(I687
I14
I16
tp689
a(I688
I15
I16
tp690
a.