(lp1
(I0
I702
I33
tp2
a(I1
I701
I33
tp3
a(I2
I700
I33
tp4
a(I3
I699
I33
tp5
a(I4
I698
I33
tp6
a(I5
I697
I33
tp7
a(I6
I696
I33
tp8
a(I7
I695
I33
tp9
a(I8
I694
I33
tp10
a(I9
I693
I33
tp11
a(I10
I692
I33
tp12
a(I11
I691
I33
tp13
a(I12
I690
I33
tp14
a(I13
I689
I33
tp15
a(I14
I688
I33
tp16
a(I15
I687
I33
tp17
a(I16
I686
I33
tp18
a(I17
I685
I33
tp19
a(I18
I684
I33
tp20
a(I19
I683
I33
tp21
a(I20
I682
I33
tp22
a(I21
I681
I33
tp23
a(I22
I680
I33
tp24
a(I23
I679
I33
tp25
a(I24
I678
I33
tp26
a(I25
I677
I33
tp27
a(I26
I676
I33
tp28
a(I27
I675
I33
tp29
a(I28
I674
I33
tp30
a(I29
I673
I33
tp31
a(I30
I672
I33
tp32
a(I31
I671
I33
tp33
a(I32
I670
I33
tp34
a(I33
I669
I33
tp35
a(I34
I668
I33
tp36
a(I35
I667
I33
tp37
a(I36
I666
I33
tp38
a(I37
I665
I33
tp39
a(I38
I664
I33
tp40
a(I39
I663
I33
tp41
a(I40
I662
I33
tp42
a(I41
I661
I33
tp43
a(I42
I660
I33
tp44
a(I43
I659
I33
tp45
a(I44
I658
I33
tp46
a(I45
I657
I33
tp47
a(I46
I656
I33
tp48
a(I47
I655
I33
tp49
a(I48
I654
I33
tp50
a(I49
I653
I33
tp51
a(I50
I652
I33
tp52
a(I51
I651
I33
tp53
a(I52
I650
I33
tp54
a(I53
I649
I33
tp55
a(I54
I648
I33
tp56
a(I55
I647
I33
tp57
a(I56
I646
I33
tp58
a(I57
I645
I33
tp59
a(I58
I644
I33
tp60
a(I59
I643
I33
tp61
a(I60
I642
I33
tp62
a(I61
I641
I33
tp63
a(I62
I640
I33
tp64
a(I63
I639
I33
tp65
a(I64
I638
I33
tp66
a(I65
I637
I33
tp67
a(I66
I636
I33
tp68
a(I67
I635
I33
tp69
a(I68
I634
I33
tp70
a(I69
I633
I33
tp71
a(I70
I632
I33
tp72
a(I71
I631
I33
tp73
a(I72
I630
I33
tp74
a(I73
I629
I33
tp75
a(I74
I628
I33
tp76
a(I75
I627
I33
tp77
a(I76
I626
I33
tp78
a(I77
I625
I33
tp79
a(I78
I624
I33
tp80
a(I79
I623
I33
tp81
a(I80
I622
I33
tp82
a(I81
I621
I33
tp83
a(I82
I620
I33
tp84
a(I83
I619
I33
tp85
a(I84
I618
I33
tp86
a(I85
I617
I33
tp87
a(I86
I616
I33
tp88
a(I87
I615
I33
tp89
a(I88
I614
I33
tp90
a(I89
I613
I33
tp91
a(I90
I612
I33
tp92
a(I91
I611
I33
tp93
a(I92
I610
I33
tp94
a(I93
I609
I33
tp95
a(I94
I608
I33
tp96
a(I95
I607
I33
tp97
a(I96
I606
I33
tp98
a(I97
I605
I33
tp99
a(I98
I604
I33
tp100
a(I99
I603
I33
tp101
a(I100
I602
I33
tp102
a(I101
I601
I33
tp103
a(I102
I600
I33
tp104
a(I103
I599
I33
tp105
a(I104
I598
I33
tp106
a(I105
I597
I33
tp107
a(I106
I596
I33
tp108
a(I107
I595
I33
tp109
a(I108
I594
I33
tp110
a(I109
I593
I33
tp111
a(I110
I592
I33
tp112
a(I111
I591
I33
tp113
a(I112
I590
I33
tp114
a(I113
I589
I33
tp115
a(I114
I588
I33
tp116
a(I115
I587
I33
tp117
a(I116
I586
I33
tp118
a(I117
I585
I33
tp119
a(I118
I584
I33
tp120
a(I119
I583
I33
tp121
a(I120
I582
I33
tp122
a(I121
I581
I33
tp123
a(I122
I580
I33
tp124
a(I123
I579
I33
tp125
a(I124
I578
I33
tp126
a(I125
I577
I33
tp127
a(I126
I576
I33
tp128
a(I127
I575
I33
tp129
a(I128
I574
I33
tp130
a(I129
I573
I33
tp131
a(I130
I572
I33
tp132
a(I131
I571
I33
tp133
a(I132
I570
I33
tp134
a(I133
I569
I33
tp135
a(I134
I568
I33
tp136
a(I135
I567
I33
tp137
a(I136
I566
I33
tp138
a(I137
I565
I33
tp139
a(I138
I564
I33
tp140
a(I139
I563
I33
tp141
a(I140
I562
I33
tp142
a(I141
I561
I33
tp143
a(I142
I560
I33
tp144
a(I143
I559
I33
tp145
a(I144
I558
I33
tp146
a(I145
I557
I33
tp147
a(I146
I556
I33
tp148
a(I147
I555
I33
tp149
a(I148
I554
I33
tp150
a(I149
I553
I33
tp151
a(I150
I552
I33
tp152
a(I151
I551
I33
tp153
a(I152
I550
I33
tp154
a(I153
I549
I33
tp155
a(I154
I548
I33
tp156
a(I155
I547
I33
tp157
a(I156
I546
I33
tp158
a(I157
I545
I33
tp159
a(I158
I544
I33
tp160
a(I159
I543
I33
tp161
a(I160
I542
I33
tp162
a(I161
I541
I33
tp163
a(I162
I540
I33
tp164
a(I163
I539
I33
tp165
a(I164
I538
I33
tp166
a(I165
I537
I33
tp167
a(I166
I536
I33
tp168
a(I167
I535
I33
tp169
a(I168
I534
I33
tp170
a(I169
I533
I33
tp171
a(I170
I532
I33
tp172
a(I171
I531
I33
tp173
a(I172
I530
I33
tp174
a(I173
I529
I33
tp175
a(I174
I528
I33
tp176
a(I175
I527
I33
tp177
a(I176
I526
I33
tp178
a(I177
I525
I33
tp179
a(I178
I524
I33
tp180
a(I179
I523
I33
tp181
a(I180
I522
I33
tp182
a(I181
I521
I33
tp183
a(I182
I520
I33
tp184
a(I183
I519
I33
tp185
a(I184
I518
I33
tp186
a(I185
I517
I33
tp187
a(I186
I516
I33
tp188
a(I187
I515
I33
tp189
a(I188
I514
I33
tp190
a(I189
I513
I33
tp191
a(I190
I512
I33
tp192
a(I191
I511
I33
tp193
a(I192
I510
I33
tp194
a(I193
I509
I33
tp195
a(I194
I508
I33
tp196
a(I195
I507
I33
tp197
a(I196
I506
I33
tp198
a(I197
I505
I33
tp199
a(I198
I504
I33
tp200
a(I199
I503
I33
tp201
a(I200
I502
I33
tp202
a(I201
I501
I33
tp203
a(I202
I500
I33
tp204
a(I203
I499
I33
tp205
a(I204
I498
I33
tp206
a(I205
I497
I33
tp207
a(I206
I496
I33
tp208
a(I207
I495
I33
tp209
a(I208
I494
I33
tp210
a(I209
I493
I33
tp211
a(I210
I492
I33
tp212
a(I211
I491
I33
tp213
a(I212
I490
I33
tp214
a(I213
I489
I33
tp215
a(I214
I488
I33
tp216
a(I215
I487
I33
tp217
a(I216
I486
I33
tp218
a(I217
I485
I33
tp219
a(I218
I484
I33
tp220
a(I219
I483
I33
tp221
a(I220
I482
I33
tp222
a(I221
I481
I33
tp223
a(I222
I480
I33
tp224
a(I223
I479
I33
tp225
a(I224
I478
I33
tp226
a(I225
I477
I33
tp227
a(I226
I476
I33
tp228
a(I227
I475
I33
tp229
a(I228
I474
I33
tp230
a(I229
I473
I33
tp231
a(I230
I472
I33
tp232
a(I231
I471
I33
tp233
a(I232
I470
I33
tp234
a(I233
I469
I33
tp235
a(I234
I468
I33
tp236
a(I235
I467
I33
tp237
a(I236
I466
I33
tp238
a(I237
I465
I33
tp239
a(I238
I464
I33
tp240
a(I239
I463
I33
tp241
a(I240
I462
I33
tp242
a(I241
I461
I33
tp243
a(I242
I460
I33
tp244
a(I243
I459
I33
tp245
a(I244
I458
I33
tp246
a(I245
I457
I33
tp247
a(I246
I456
I33
tp248
a(I247
I455
I33
tp249
a(I248
I454
I33
tp250
a(I249
I453
I33
tp251
a(I250
I452
I33
tp252
a(I251
I451
I33
tp253
a(I252
I450
I33
tp254
a(I253
I449
I33
tp255
a(I254
I448
I33
tp256
a(I255
I447
I33
tp257
a(I256
I446
I33
tp258
a(I257
I445
I33
tp259
a(I258
I444
I33
tp260
a(I259
I443
I33
tp261
a(I260
I442
I33
tp262
a(I261
I441
I33
tp263
a(I262
I440
I33
tp264
a(I263
I439
I33
tp265
a(I264
I438
I33
tp266
a(I265
I437
I33
tp267
a(I266
I436
I33
tp268
a(I267
I435
I33
tp269
a(I268
I434
I33
tp270
a(I269
I433
I33
tp271
a(I270
I432
I33
tp272
a(I271
I431
I33
tp273
a(I272
I430
I33
tp274
a(I273
I429
I33
tp275
a(I274
I428
I33
tp276
a(I275
I427
I33
tp277
a(I276
I426
I33
tp278
a(I277
I425
I33
tp279
a(I278
I424
I33
tp280
a(I279
I423
I33
tp281
a(I280
I422
I33
tp282
a(I281
I421
I33
tp283
a(I282
I420
I33
tp284
a(I283
I419
I33
tp285
a(I284
I418
I33
tp286
a(I285
I417
I33
tp287
a(I286
I416
I33
tp288
a(I287
I415
I33
tp289
a(I288
I414
I33
tp290
a(I289
I413
I33
tp291
a(I290
I412
I33
tp292
a(I291
I411
I33
tp293
a(I292
I410
I33
tp294
a(I293
I409
I33
tp295
a(I294
I408
I33
tp296
a(I295
I407
I33
tp297
a(I296
I406
I33
tp298
a(I297
I405
I33
tp299
a(I298
I404
I33
tp300
a(I299
I403
I33
tp301
a(I300
I402
I33
tp302
a(I301
I401
I33
tp303
a(I302
I400
I33
tp304
a(I303
I399
I33
tp305
a(I304
I398
I33
tp306
a(I305
I397
I33
tp307
a(I306
I396
I33
tp308
a(I307
I395
I33
tp309
a(I308
I394
I33
tp310
a(I309
I393
I33
tp311
a(I310
I392
I33
tp312
a(I311
I391
I33
tp313
a(I312
I390
I33
tp314
a(I313
I389
I33
tp315
a(I314
I388
I33
tp316
a(I315
I387
I33
tp317
a(I316
I386
I33
tp318
a(I317
I385
I33
tp319
a(I318
I384
I33
tp320
a(I319
I383
I33
tp321
a(I320
I382
I33
tp322
a(I321
I381
I33
tp323
a(I322
I380
I33
tp324
a(I323
I379
I33
tp325
a(I324
I378
I33
tp326
a(I325
I377
I33
tp327
a(I326
I376
I33
tp328
a(I327
I375
I33
tp329
a(I328
I374
I33
tp330
a(I329
I373
I33
tp331
a(I330
I372
I33
tp332
a(I331
I371
I33
tp333
a(I332
I370
I33
tp334
a(I333
I369
I33
tp335
a(I334
I368
I33
tp336
a(I335
I367
I33
tp337
a(I336
I366
I33
tp338
a(I337
I365
I33
tp339
a(I338
I364
I33
tp340
a(I339
I363
I33
tp341
a(I340
I362
I33
tp342
a(I341
I361
I33
tp343
a(I342
I360
I33
tp344
a(I343
I359
I33
tp345
a(I344
I358
I33
tp346
a(I345
I357
I33
tp347
a(I346
I356
I33
tp348
a(I347
I355
I33
tp349
a(I348
I354
I33
tp350
a(I349
I353
I33
tp351
a(I350
I352
I33
tp352
a(I351
I351
I33
tp353
a(I352
I350
I33
tp354
a(I353
I349
I33
tp355
a(I354
I348
I33
tp356
a(I355
I347
I33
tp357
a(I356
I346
I33
tp358
a(I357
I345
I33
tp359
a(I358
I344
I33
tp360
a(I359
I343
I33
tp361
a(I360
I342
I33
tp362
a(I361
I341
I33
tp363
a(I362
I340
I33
tp364
a(I363
I339
I33
tp365
a(I364
I338
I33
tp366
a(I365
I337
I33
tp367
a(I366
I336
I33
tp368
a(I367
I335
I33
tp369
a(I368
I334
I33
tp370
a(I369
I333
I33
tp371
a(I370
I332
I33
tp372
a(I371
I331
I33
tp373
a(I372
I330
I33
tp374
a(I373
I329
I33
tp375
a(I374
I328
I33
tp376
a(I375
I327
I33
tp377
a(I376
I326
I33
tp378
a(I377
I325
I33
tp379
a(I378
I324
I33
tp380
a(I379
I323
I33
tp381
a(I380
I322
I33
tp382
a(I381
I321
I33
tp383
a(I382
I320
I33
tp384
a(I383
I319
I33
tp385
a(I384
I318
I33
tp386
a(I385
I317
I33
tp387
a(I386
I316
I33
tp388
a(I387
I315
I33
tp389
a(I388
I314
I33
tp390
a(I389
I313
I33
tp391
a(I390
I312
I33
tp392
a(I391
I311
I33
tp393
a(I392
I310
I33
tp394
a(I393
I309
I33
tp395
a(I394
I308
I33
tp396
a(I395
I307
I33
tp397
a(I396
I306
I33
tp398
a(I397
I305
I33
tp399
a(I398
I304
I33
tp400
a(I399
I303
I33
tp401
a(I400
I302
I33
tp402
a(I401
I301
I33
tp403
a(I402
I300
I33
tp404
a(I403
I299
I33
tp405
a(I404
I298
I33
tp406
a(I405
I297
I33
tp407
a(I406
I296
I33
tp408
a(I407
I295
I33
tp409
a(I408
I294
I33
tp410
a(I409
I293
I33
tp411
a(I410
I292
I33
tp412
a(I411
I291
I33
tp413
a(I412
I290
I33
tp414
a(I413
I289
I33
tp415
a(I414
I288
I33
tp416
a(I415
I287
I33
tp417
a(I416
I286
I33
tp418
a(I417
I285
I33
tp419
a(I418
I284
I33
tp420
a(I419
I283
I33
tp421
a(I420
I282
I33
tp422
a(I421
I281
I33
tp423
a(I422
I280
I33
tp424
a(I423
I279
I33
tp425
a(I424
I278
I33
tp426
a(I425
I277
I33
tp427
a(I426
I276
I33
tp428
a(I427
I275
I33
tp429
a(I428
I274
I33
tp430
a(I429
I273
I33
tp431
a(I430
I272
I33
tp432
a(I431
I271
I33
tp433
a(I432
I270
I33
tp434
a(I433
I269
I33
tp435
a(I434
I268
I33
tp436
a(I435
I267
I33
tp437
a(I436
I266
I33
tp438
a(I437
I265
I33
tp439
a(I438
I264
I33
tp440
a(I439
I263
I33
tp441
a(I440
I262
I33
tp442
a(I441
I261
I33
tp443
a(I442
I260
I33
tp444
a(I443
I259
I33
tp445
a(I444
I258
I33
tp446
a(I445
I257
I33
tp447
a(I446
I256
I33
tp448
a(I447
I255
I33
tp449
a(I448
I254
I33
tp450
a(I449
I253
I33
tp451
a(I450
I252
I33
tp452
a(I451
I251
I33
tp453
a(I452
I250
I33
tp454
a(I453
I249
I33
tp455
a(I454
I248
I33
tp456
a(I455
I247
I33
tp457
a(I456
I246
I33
tp458
a(I457
I245
I33
tp459
a(I458
I244
I33
tp460
a(I459
I243
I33
tp461
a(I460
I242
I33
tp462
a(I461
I241
I33
tp463
a(I462
I240
I33
tp464
a(I463
I239
I33
tp465
a(I464
I238
I33
tp466
a(I465
I237
I33
tp467
a(I466
I236
I33
tp468
a(I467
I235
I33
tp469
a(I468
I234
I33
tp470
a(I469
I233
I33
tp471
a(I470
I232
I33
tp472
a(I471
I231
I33
tp473
a(I472
I230
I33
tp474
a(I473
I229
I33
tp475
a(I474
I228
I33
tp476
a(I475
I227
I33
tp477
a(I476
I226
I33
tp478
a(I477
I225
I33
tp479
a(I478
I224
I33
tp480
a(I479
I223
I33
tp481
a(I480
I222
I33
tp482
a(I481
I221
I33
tp483
a(I482
I220
I33
tp484
a(I483
I219
I33
tp485
a(I484
I218
I33
tp486
a(I485
I217
I33
tp487
a(I486
I216
I33
tp488
a(I487
I215
I33
tp489
a(I488
I214
I33
tp490
a(I489
I213
I33
tp491
a(I490
I212
I33
tp492
a(I491
I211
I33
tp493
a(I492
I210
I33
tp494
a(I493
I209
I33
tp495
a(I494
I208
I33
tp496
a(I495
I207
I33
tp497
a(I496
I206
I33
tp498
a(I497
I205
I33
tp499
a(I498
I204
I33
tp500
a(I499
I203
I33
tp501
a(I500
I202
I33
tp502
a(I501
I201
I33
tp503
a(I502
I200
I33
tp504
a(I503
I199
I33
tp505
a(I504
I198
I33
tp506
a(I505
I197
I33
tp507
a(I506
I196
I33
tp508
a(I507
I195
I33
tp509
a(I508
I194
I33
tp510
a(I509
I193
I33
tp511
a(I510
I192
I33
tp512
a(I511
I191
I33
tp513
a(I512
I190
I33
tp514
a(I513
I189
I33
tp515
a(I514
I188
I33
tp516
a(I515
I187
I33
tp517
a(I516
I186
I33
tp518
a(I517
I185
I33
tp519
a(I518
I184
I33
tp520
a(I519
I183
I33
tp521
a(I520
I182
I33
tp522
a(I521
I181
I33
tp523
a(I522
I180
I33
tp524
a(I523
I179
I33
tp525
a(I524
I178
I33
tp526
a(I525
I177
I33
tp527
a(I526
I176
I33
tp528
a(I527
I175
I33
tp529
a(I528
I174
I33
tp530
a(I529
I173
I33
tp531
a(I530
I172
I33
tp532
a(I531
I171
I33
tp533
a(I532
I170
I33
tp534
a(I533
I169
I33
tp535
a(I534
I168
I33
tp536
a(I535
I167
I33
tp537
a(I536
I166
I33
tp538
a(I537
I165
I33
tp539
a(I538
I164
I33
tp540
a(I539
I163
I33
tp541
a(I540
I162
I33
tp542
a(I541
I161
I33
tp543
a(I542
I160
I33
tp544
a(I543
I159
I33
tp545
a(I544
I158
I33
tp546
a(I545
I157
I33
tp547
a(I546
I156
I33
tp548
a(I547
I155
I33
tp549
a(I548
I154
I33
tp550
a(I549
I153
I33
tp551
a(I550
I152
I33
tp552
a(I551
I151
I33
tp553
a(I552
I150
I33
tp554
a(I553
I149
I33
tp555
a(I554
I148
I33
tp556
a(I555
I147
I33
tp557
a(I556
I146
I33
tp558
a(I557
I145
I33
tp559
a(I558
I144
I33
tp560
a(I559
I143
I33
tp561
a(I560
I142
I33
tp562
a(I561
I141
I33
tp563
a(I562
I140
I33
tp564
a(I563
I139
I33
tp565
a(I564
I138
I33
tp566
a(I565
I137
I33
tp567
a(I566
I136
I33
tp568
a(I567
I135
I33
tp569
a(I568
I134
I33
tp570
a(I569
I133
I33
tp571
a(I570
I132
I33
tp572
a(I571
I131
I33
tp573
a(I572
I130
I33
tp574
a(I573
I129
I33
tp575
a(I574
I128
I33
tp576
a(I575
I127
I33
tp577
a(I576
I126
I33
tp578
a(I577
I125
I33
tp579
a(I578
I124
I33
tp580
a(I579
I123
I33
tp581
a(I580
I122
I33
tp582
a(I581
I121
I33
tp583
a(I582
I120
I33
tp584
a(I583
I119
I33
tp585
a(I584
I118
I33
tp586
a(I585
I117
I33
tp587
a(I586
I116
I33
tp588
a(I587
I115
I33
tp589
a(I588
I114
I33
tp590
a(I589
I113
I33
tp591
a(I590
I112
I33
tp592
a(I591
I111
I33
tp593
a(I592
I110
I33
tp594
a(I593
I109
I33
tp595
a(I594
I108
I33
tp596
a(I595
I107
I33
tp597
a(I596
I106
I33
tp598
a(I597
I105
I33
tp599
a(I598
I104
I33
tp600
a(I599
I103
I33
tp601
a(I600
I102
I33
tp602
a(I601
I101
I33
tp603
a(I602
I100
I33
tp604
a(I603
I99
I33
tp605
a(I604
I98
I33
tp606
a(I605
I97
I33
tp607
a(I606
I96
I33
tp608
a(I607
I95
I33
tp609
a(I608
I94
I33
tp610
a(I609
I93
I33
tp611
a(I610
I92
I33
tp612
a(I611
I91
I33
tp613
a(I612
I90
I33
tp614
a(I613
I89
I33
tp615
a(I614
I88
I33
tp616
a(I615
I87
I33
tp617
a(I616
I86
I33
tp618
a(I617
I85
I33
tp619
a(I618
I84
I33
tp620
a(I619
I83
I33
tp621
a(I620
I82
I33
tp622
a(I621
I81
I33
tp623
a(I622
I80
I33
tp624
a(I623
I79
I33
tp625
a(I624
I78
I33
tp626
a(I625
I77
I33
tp627
a(I626
I76
I33
tp628
a(I627
I75
I33
tp629
a(I628
I74
I33
tp630
a(I629
I73
I33
tp631
a(I630
I72
I33
tp632
a(I631
I71
I33
tp633
a(I632
I70
I33
tp634
a(I633
I69
I33
tp635
a(I634
I68
I33
tp636
a(I635
I67
I33
tp637
a(I636
I66
I33
tp638
a(I637
I65
I33
tp639
a(I638
I64
I33
tp640
a(I639
I63
I33
tp641
a(I640
I62
I33
tp642
a(I641
I61
I33
tp643
a(I642
I60
I33
tp644
a(I643
I59
I33
tp645
a(I644
I58
I33
tp646
a(I645
I57
I33
tp647
a(I646
I56
I33
tp648
a(I647
I55
I33
tp649
a(I648
I54
I33
tp650
a(I649
I53
I33
tp651
a(I650
I52
I33
tp652
a(I651
I51
I33
tp653
a(I652
I50
I33
tp654
a(I653
I49
I33
tp655
a(I654
I48
I33
tp656
a(I655
I47
I33
tp657
a(I656
I46
I33
tp658
a(I657
I45
I33
tp659
a(I658
I44
I33
tp660
a(I659
I43
I33
tp661
a(I660
I42
I33
tp662
a(I661
I41
I33
tp663
a(I662
I40
I33
tp664
a(I663
I39
I33
tp665
a(I664
I38
I33
tp666
a(I665
I37
I33
tp667
a(I666
I36
I33
tp668
a(I667
I35
I33
tp669
a(I668
I34
I33
tp670
a(I669
I33
I33
tp671
a(I670
I32
I33
tp672
a(I671
I31
I33
tp673
a(I672
I30
I33
tp674
a(I673
I30
I33
tp675
a(I674
I29
I33
tp676
a(I675
I28
I33
tp677
a(I676
I27
I33
tp678
a(I677
I26
I33
tp679
a(I678
I25
I33
tp680
a(I679
I24
I33
tp681
a(I680
I24
I33
tp682
a(I681
I23
I33
tp683
a(I682
I22
I33
tp684
a(I683
I21
I33
tp685
a(I684
I20
I33
tp686
a(I685
I19
I33
tp687
a(I686
I18
I33
tp688
a(I687
I17
I33
tp689
a(I688
I17
I33
tp690
a.